   1              		.cpu cortex-m0plus
   2              		.eabi_attribute 20, 1
   3              		.eabi_attribute 21, 1
   4              		.eabi_attribute 23, 3
   5              		.eabi_attribute 24, 1
   6              		.eabi_attribute 25, 1
   7              		.eabi_attribute 26, 1
   8              		.eabi_attribute 30, 6
   9              		.eabi_attribute 34, 0
  10              		.eabi_attribute 18, 4
  11              		.file	"fsl_uart.c"
  12              		.text
  13              	.Ltext0:
  14              		.cfi_sections	.debug_frame
  15              		.section	.text.NVIC_EnableIRQ,"ax",%progbits
  16              		.align	1
  17              		.arch armv6s-m
  18              		.syntax unified
  19              		.code	16
  20              		.thumb_func
  21              		.fpu softvfp
  23              	NVIC_EnableIRQ:
  24              	.LFB25:
  25              		.file 1 "/home/arpit/studies/pes/Blinkenlights/CMSIS/core_cm0plus.h"
   1:/home/arpit/studies/pes/Blinkenlights/CMSIS/core_cm0plus.h **** /**************************************************************************//**
   2:/home/arpit/studies/pes/Blinkenlights/CMSIS/core_cm0plus.h ****  * @file     core_cm0plus.h
   3:/home/arpit/studies/pes/Blinkenlights/CMSIS/core_cm0plus.h ****  * @brief    CMSIS Cortex-M0+ Core Peripheral Access Layer Header File
   4:/home/arpit/studies/pes/Blinkenlights/CMSIS/core_cm0plus.h ****  * @version  V4.30
   5:/home/arpit/studies/pes/Blinkenlights/CMSIS/core_cm0plus.h ****  * @date     20. October 2015
   6:/home/arpit/studies/pes/Blinkenlights/CMSIS/core_cm0plus.h ****  ******************************************************************************/
   7:/home/arpit/studies/pes/Blinkenlights/CMSIS/core_cm0plus.h **** /* Copyright (c) 2009 - 2015 ARM LIMITED
   8:/home/arpit/studies/pes/Blinkenlights/CMSIS/core_cm0plus.h **** 
   9:/home/arpit/studies/pes/Blinkenlights/CMSIS/core_cm0plus.h ****    All rights reserved.
  10:/home/arpit/studies/pes/Blinkenlights/CMSIS/core_cm0plus.h ****    Redistribution and use in source and binary forms, with or without
  11:/home/arpit/studies/pes/Blinkenlights/CMSIS/core_cm0plus.h ****    modification, are permitted provided that the following conditions are met:
  12:/home/arpit/studies/pes/Blinkenlights/CMSIS/core_cm0plus.h ****    - Redistributions of source code must retain the above copyright
  13:/home/arpit/studies/pes/Blinkenlights/CMSIS/core_cm0plus.h ****      notice, this list of conditions and the following disclaimer.
  14:/home/arpit/studies/pes/Blinkenlights/CMSIS/core_cm0plus.h ****    - Redistributions in binary form must reproduce the above copyright
  15:/home/arpit/studies/pes/Blinkenlights/CMSIS/core_cm0plus.h ****      notice, this list of conditions and the following disclaimer in the
  16:/home/arpit/studies/pes/Blinkenlights/CMSIS/core_cm0plus.h ****      documentation and/or other materials provided with the distribution.
  17:/home/arpit/studies/pes/Blinkenlights/CMSIS/core_cm0plus.h ****    - Neither the name of ARM nor the names of its contributors may be used
  18:/home/arpit/studies/pes/Blinkenlights/CMSIS/core_cm0plus.h ****      to endorse or promote products derived from this software without
  19:/home/arpit/studies/pes/Blinkenlights/CMSIS/core_cm0plus.h ****      specific prior written permission.
  20:/home/arpit/studies/pes/Blinkenlights/CMSIS/core_cm0plus.h ****    *
  21:/home/arpit/studies/pes/Blinkenlights/CMSIS/core_cm0plus.h ****    THIS SOFTWARE IS PROVIDED BY THE COPYRIGHT HOLDERS AND CONTRIBUTORS "AS IS"
  22:/home/arpit/studies/pes/Blinkenlights/CMSIS/core_cm0plus.h ****    AND ANY EXPRESS OR IMPLIED WARRANTIES, INCLUDING, BUT NOT LIMITED TO, THE
  23:/home/arpit/studies/pes/Blinkenlights/CMSIS/core_cm0plus.h ****    IMPLIED WARRANTIES OF MERCHANTABILITY AND FITNESS FOR A PARTICULAR PURPOSE
  24:/home/arpit/studies/pes/Blinkenlights/CMSIS/core_cm0plus.h ****    ARE DISCLAIMED. IN NO EVENT SHALL COPYRIGHT HOLDERS AND CONTRIBUTORS BE
  25:/home/arpit/studies/pes/Blinkenlights/CMSIS/core_cm0plus.h ****    LIABLE FOR ANY DIRECT, INDIRECT, INCIDENTAL, SPECIAL, EXEMPLARY, OR
  26:/home/arpit/studies/pes/Blinkenlights/CMSIS/core_cm0plus.h ****    CONSEQUENTIAL DAMAGES (INCLUDING, BUT NOT LIMITED TO, PROCUREMENT OF
  27:/home/arpit/studies/pes/Blinkenlights/CMSIS/core_cm0plus.h ****    SUBSTITUTE GOODS OR SERVICES; LOSS OF USE, DATA, OR PROFITS; OR BUSINESS
  28:/home/arpit/studies/pes/Blinkenlights/CMSIS/core_cm0plus.h ****    INTERRUPTION) HOWEVER CAUSED AND ON ANY THEORY OF LIABILITY, WHETHER IN
  29:/home/arpit/studies/pes/Blinkenlights/CMSIS/core_cm0plus.h ****    CONTRACT, STRICT LIABILITY, OR TORT (INCLUDING NEGLIGENCE OR OTHERWISE)
  30:/home/arpit/studies/pes/Blinkenlights/CMSIS/core_cm0plus.h ****    ARISING IN ANY WAY OUT OF THE USE OF THIS SOFTWARE, EVEN IF ADVISED OF THE
  31:/home/arpit/studies/pes/Blinkenlights/CMSIS/core_cm0plus.h ****    POSSIBILITY OF SUCH DAMAGE.
  32:/home/arpit/studies/pes/Blinkenlights/CMSIS/core_cm0plus.h ****    ---------------------------------------------------------------------------*/
  33:/home/arpit/studies/pes/Blinkenlights/CMSIS/core_cm0plus.h **** 
  34:/home/arpit/studies/pes/Blinkenlights/CMSIS/core_cm0plus.h **** 
  35:/home/arpit/studies/pes/Blinkenlights/CMSIS/core_cm0plus.h **** #if   defined ( __ICCARM__ )
  36:/home/arpit/studies/pes/Blinkenlights/CMSIS/core_cm0plus.h ****  #pragma system_include         /* treat file as system include file for MISRA check */
  37:/home/arpit/studies/pes/Blinkenlights/CMSIS/core_cm0plus.h **** #elif defined(__ARMCC_VERSION) && (__ARMCC_VERSION >= 6010050)
  38:/home/arpit/studies/pes/Blinkenlights/CMSIS/core_cm0plus.h ****   #pragma clang system_header   /* treat file as system include file */
  39:/home/arpit/studies/pes/Blinkenlights/CMSIS/core_cm0plus.h **** #endif
  40:/home/arpit/studies/pes/Blinkenlights/CMSIS/core_cm0plus.h **** 
  41:/home/arpit/studies/pes/Blinkenlights/CMSIS/core_cm0plus.h **** #ifndef __CORE_CM0PLUS_H_GENERIC
  42:/home/arpit/studies/pes/Blinkenlights/CMSIS/core_cm0plus.h **** #define __CORE_CM0PLUS_H_GENERIC
  43:/home/arpit/studies/pes/Blinkenlights/CMSIS/core_cm0plus.h **** 
  44:/home/arpit/studies/pes/Blinkenlights/CMSIS/core_cm0plus.h **** #include <stdint.h>
  45:/home/arpit/studies/pes/Blinkenlights/CMSIS/core_cm0plus.h **** 
  46:/home/arpit/studies/pes/Blinkenlights/CMSIS/core_cm0plus.h **** #ifdef __cplusplus
  47:/home/arpit/studies/pes/Blinkenlights/CMSIS/core_cm0plus.h ****  extern "C" {
  48:/home/arpit/studies/pes/Blinkenlights/CMSIS/core_cm0plus.h **** #endif
  49:/home/arpit/studies/pes/Blinkenlights/CMSIS/core_cm0plus.h **** 
  50:/home/arpit/studies/pes/Blinkenlights/CMSIS/core_cm0plus.h **** /**
  51:/home/arpit/studies/pes/Blinkenlights/CMSIS/core_cm0plus.h ****   \page CMSIS_MISRA_Exceptions  MISRA-C:2004 Compliance Exceptions
  52:/home/arpit/studies/pes/Blinkenlights/CMSIS/core_cm0plus.h ****   CMSIS violates the following MISRA-C:2004 rules:
  53:/home/arpit/studies/pes/Blinkenlights/CMSIS/core_cm0plus.h **** 
  54:/home/arpit/studies/pes/Blinkenlights/CMSIS/core_cm0plus.h ****    \li Required Rule 8.5, object/function definition in header file.<br>
  55:/home/arpit/studies/pes/Blinkenlights/CMSIS/core_cm0plus.h ****      Function definitions in header files are used to allow 'inlining'.
  56:/home/arpit/studies/pes/Blinkenlights/CMSIS/core_cm0plus.h **** 
  57:/home/arpit/studies/pes/Blinkenlights/CMSIS/core_cm0plus.h ****    \li Required Rule 18.4, declaration of union type or object of union type: '{...}'.<br>
  58:/home/arpit/studies/pes/Blinkenlights/CMSIS/core_cm0plus.h ****      Unions are used for effective representation of core registers.
  59:/home/arpit/studies/pes/Blinkenlights/CMSIS/core_cm0plus.h **** 
  60:/home/arpit/studies/pes/Blinkenlights/CMSIS/core_cm0plus.h ****    \li Advisory Rule 19.7, Function-like macro defined.<br>
  61:/home/arpit/studies/pes/Blinkenlights/CMSIS/core_cm0plus.h ****      Function-like macros are used to allow more efficient code.
  62:/home/arpit/studies/pes/Blinkenlights/CMSIS/core_cm0plus.h ****  */
  63:/home/arpit/studies/pes/Blinkenlights/CMSIS/core_cm0plus.h **** 
  64:/home/arpit/studies/pes/Blinkenlights/CMSIS/core_cm0plus.h **** 
  65:/home/arpit/studies/pes/Blinkenlights/CMSIS/core_cm0plus.h **** /*******************************************************************************
  66:/home/arpit/studies/pes/Blinkenlights/CMSIS/core_cm0plus.h ****  *                 CMSIS definitions
  67:/home/arpit/studies/pes/Blinkenlights/CMSIS/core_cm0plus.h ****  ******************************************************************************/
  68:/home/arpit/studies/pes/Blinkenlights/CMSIS/core_cm0plus.h **** /**
  69:/home/arpit/studies/pes/Blinkenlights/CMSIS/core_cm0plus.h ****   \ingroup Cortex-M0+
  70:/home/arpit/studies/pes/Blinkenlights/CMSIS/core_cm0plus.h ****   @{
  71:/home/arpit/studies/pes/Blinkenlights/CMSIS/core_cm0plus.h ****  */
  72:/home/arpit/studies/pes/Blinkenlights/CMSIS/core_cm0plus.h **** 
  73:/home/arpit/studies/pes/Blinkenlights/CMSIS/core_cm0plus.h **** /*  CMSIS CM0+ definitions */
  74:/home/arpit/studies/pes/Blinkenlights/CMSIS/core_cm0plus.h **** #define __CM0PLUS_CMSIS_VERSION_MAIN (0x04U)                                   /*!< [31:16] CMSIS H
  75:/home/arpit/studies/pes/Blinkenlights/CMSIS/core_cm0plus.h **** #define __CM0PLUS_CMSIS_VERSION_SUB  (0x1EU)                                   /*!< [15:0]  CMSIS H
  76:/home/arpit/studies/pes/Blinkenlights/CMSIS/core_cm0plus.h **** #define __CM0PLUS_CMSIS_VERSION      ((__CM0PLUS_CMSIS_VERSION_MAIN << 16U) | \
  77:/home/arpit/studies/pes/Blinkenlights/CMSIS/core_cm0plus.h ****                                        __CM0PLUS_CMSIS_VERSION_SUB           ) /*!< CMSIS HAL versi
  78:/home/arpit/studies/pes/Blinkenlights/CMSIS/core_cm0plus.h **** 
  79:/home/arpit/studies/pes/Blinkenlights/CMSIS/core_cm0plus.h **** #define __CORTEX_M                (0x00U)                                      /*!< Cortex-M Core *
  80:/home/arpit/studies/pes/Blinkenlights/CMSIS/core_cm0plus.h **** 
  81:/home/arpit/studies/pes/Blinkenlights/CMSIS/core_cm0plus.h **** 
  82:/home/arpit/studies/pes/Blinkenlights/CMSIS/core_cm0plus.h **** #if   defined ( __CC_ARM )
  83:/home/arpit/studies/pes/Blinkenlights/CMSIS/core_cm0plus.h ****   #define __ASM            __asm                                      /*!< asm keyword for ARM Comp
  84:/home/arpit/studies/pes/Blinkenlights/CMSIS/core_cm0plus.h ****   #define __INLINE         __inline                                   /*!< inline keyword for ARM C
  85:/home/arpit/studies/pes/Blinkenlights/CMSIS/core_cm0plus.h ****   #define __STATIC_INLINE  static __inline
  86:/home/arpit/studies/pes/Blinkenlights/CMSIS/core_cm0plus.h **** 
  87:/home/arpit/studies/pes/Blinkenlights/CMSIS/core_cm0plus.h **** #elif defined(__ARMCC_VERSION) && (__ARMCC_VERSION >= 6010050)
  88:/home/arpit/studies/pes/Blinkenlights/CMSIS/core_cm0plus.h ****   #define __ASM            __asm                                      /*!< asm keyword for ARM Comp
  89:/home/arpit/studies/pes/Blinkenlights/CMSIS/core_cm0plus.h ****   #define __INLINE         __inline                                   /*!< inline keyword for ARM C
  90:/home/arpit/studies/pes/Blinkenlights/CMSIS/core_cm0plus.h ****   #define __STATIC_INLINE  static __inline
  91:/home/arpit/studies/pes/Blinkenlights/CMSIS/core_cm0plus.h **** 
  92:/home/arpit/studies/pes/Blinkenlights/CMSIS/core_cm0plus.h **** #elif defined ( __GNUC__ )
  93:/home/arpit/studies/pes/Blinkenlights/CMSIS/core_cm0plus.h ****   #define __ASM            __asm                                      /*!< asm keyword for GNU Comp
  94:/home/arpit/studies/pes/Blinkenlights/CMSIS/core_cm0plus.h ****   #define __INLINE         inline                                     /*!< inline keyword for GNU C
  95:/home/arpit/studies/pes/Blinkenlights/CMSIS/core_cm0plus.h ****   #define __STATIC_INLINE  static inline
  96:/home/arpit/studies/pes/Blinkenlights/CMSIS/core_cm0plus.h **** 
  97:/home/arpit/studies/pes/Blinkenlights/CMSIS/core_cm0plus.h **** #elif defined ( __ICCARM__ )
  98:/home/arpit/studies/pes/Blinkenlights/CMSIS/core_cm0plus.h ****   #define __ASM            __asm                                      /*!< asm keyword for IAR Comp
  99:/home/arpit/studies/pes/Blinkenlights/CMSIS/core_cm0plus.h ****   #define __INLINE         inline                                     /*!< inline keyword for IAR C
 100:/home/arpit/studies/pes/Blinkenlights/CMSIS/core_cm0plus.h ****   #define __STATIC_INLINE  static inline
 101:/home/arpit/studies/pes/Blinkenlights/CMSIS/core_cm0plus.h **** 
 102:/home/arpit/studies/pes/Blinkenlights/CMSIS/core_cm0plus.h **** #elif defined ( __TMS470__ )
 103:/home/arpit/studies/pes/Blinkenlights/CMSIS/core_cm0plus.h ****   #define __ASM            __asm                                      /*!< asm keyword for TI CCS C
 104:/home/arpit/studies/pes/Blinkenlights/CMSIS/core_cm0plus.h ****   #define __STATIC_INLINE  static inline
 105:/home/arpit/studies/pes/Blinkenlights/CMSIS/core_cm0plus.h **** 
 106:/home/arpit/studies/pes/Blinkenlights/CMSIS/core_cm0plus.h **** #elif defined ( __TASKING__ )
 107:/home/arpit/studies/pes/Blinkenlights/CMSIS/core_cm0plus.h ****   #define __ASM            __asm                                      /*!< asm keyword for TASKING 
 108:/home/arpit/studies/pes/Blinkenlights/CMSIS/core_cm0plus.h ****   #define __INLINE         inline                                     /*!< inline keyword for TASKI
 109:/home/arpit/studies/pes/Blinkenlights/CMSIS/core_cm0plus.h ****   #define __STATIC_INLINE  static inline
 110:/home/arpit/studies/pes/Blinkenlights/CMSIS/core_cm0plus.h **** 
 111:/home/arpit/studies/pes/Blinkenlights/CMSIS/core_cm0plus.h **** #elif defined ( __CSMC__ )
 112:/home/arpit/studies/pes/Blinkenlights/CMSIS/core_cm0plus.h ****   #define __packed
 113:/home/arpit/studies/pes/Blinkenlights/CMSIS/core_cm0plus.h ****   #define __ASM            _asm                                      /*!< asm keyword for COSMIC Co
 114:/home/arpit/studies/pes/Blinkenlights/CMSIS/core_cm0plus.h ****   #define __INLINE         inline                                    /*!< inline keyword for COSMIC
 115:/home/arpit/studies/pes/Blinkenlights/CMSIS/core_cm0plus.h ****   #define __STATIC_INLINE  static inline
 116:/home/arpit/studies/pes/Blinkenlights/CMSIS/core_cm0plus.h **** 
 117:/home/arpit/studies/pes/Blinkenlights/CMSIS/core_cm0plus.h **** #else
 118:/home/arpit/studies/pes/Blinkenlights/CMSIS/core_cm0plus.h ****   #error Unknown compiler
 119:/home/arpit/studies/pes/Blinkenlights/CMSIS/core_cm0plus.h **** #endif
 120:/home/arpit/studies/pes/Blinkenlights/CMSIS/core_cm0plus.h **** 
 121:/home/arpit/studies/pes/Blinkenlights/CMSIS/core_cm0plus.h **** /** __FPU_USED indicates whether an FPU is used or not.
 122:/home/arpit/studies/pes/Blinkenlights/CMSIS/core_cm0plus.h ****     This core does not support an FPU at all
 123:/home/arpit/studies/pes/Blinkenlights/CMSIS/core_cm0plus.h **** */
 124:/home/arpit/studies/pes/Blinkenlights/CMSIS/core_cm0plus.h **** #define __FPU_USED       0U
 125:/home/arpit/studies/pes/Blinkenlights/CMSIS/core_cm0plus.h **** 
 126:/home/arpit/studies/pes/Blinkenlights/CMSIS/core_cm0plus.h **** #if defined ( __CC_ARM )
 127:/home/arpit/studies/pes/Blinkenlights/CMSIS/core_cm0plus.h ****   #if defined __TARGET_FPU_VFP
 128:/home/arpit/studies/pes/Blinkenlights/CMSIS/core_cm0plus.h ****     #error "Compiler generates FPU instructions for a device without an FPU (check __FPU_PRESENT)"
 129:/home/arpit/studies/pes/Blinkenlights/CMSIS/core_cm0plus.h ****   #endif
 130:/home/arpit/studies/pes/Blinkenlights/CMSIS/core_cm0plus.h **** 
 131:/home/arpit/studies/pes/Blinkenlights/CMSIS/core_cm0plus.h **** #elif defined(__ARMCC_VERSION) && (__ARMCC_VERSION >= 6010050)
 132:/home/arpit/studies/pes/Blinkenlights/CMSIS/core_cm0plus.h ****   #if defined __ARM_PCS_VFP
 133:/home/arpit/studies/pes/Blinkenlights/CMSIS/core_cm0plus.h ****     #error "Compiler generates FPU instructions for a device without an FPU (check __FPU_PRESENT)"
 134:/home/arpit/studies/pes/Blinkenlights/CMSIS/core_cm0plus.h ****   #endif
 135:/home/arpit/studies/pes/Blinkenlights/CMSIS/core_cm0plus.h **** 
 136:/home/arpit/studies/pes/Blinkenlights/CMSIS/core_cm0plus.h **** #elif defined ( __GNUC__ )
 137:/home/arpit/studies/pes/Blinkenlights/CMSIS/core_cm0plus.h ****   #if defined (__VFP_FP__) && !defined(__SOFTFP__)
 138:/home/arpit/studies/pes/Blinkenlights/CMSIS/core_cm0plus.h ****     #error "Compiler generates FPU instructions for a device without an FPU (check __FPU_PRESENT)"
 139:/home/arpit/studies/pes/Blinkenlights/CMSIS/core_cm0plus.h ****   #endif
 140:/home/arpit/studies/pes/Blinkenlights/CMSIS/core_cm0plus.h **** 
 141:/home/arpit/studies/pes/Blinkenlights/CMSIS/core_cm0plus.h **** #elif defined ( __ICCARM__ )
 142:/home/arpit/studies/pes/Blinkenlights/CMSIS/core_cm0plus.h ****   #if defined __ARMVFP__
 143:/home/arpit/studies/pes/Blinkenlights/CMSIS/core_cm0plus.h ****     #error "Compiler generates FPU instructions for a device without an FPU (check __FPU_PRESENT)"
 144:/home/arpit/studies/pes/Blinkenlights/CMSIS/core_cm0plus.h ****   #endif
 145:/home/arpit/studies/pes/Blinkenlights/CMSIS/core_cm0plus.h **** 
 146:/home/arpit/studies/pes/Blinkenlights/CMSIS/core_cm0plus.h **** #elif defined ( __TMS470__ )
 147:/home/arpit/studies/pes/Blinkenlights/CMSIS/core_cm0plus.h ****   #if defined __TI_VFP_SUPPORT__
 148:/home/arpit/studies/pes/Blinkenlights/CMSIS/core_cm0plus.h ****     #error "Compiler generates FPU instructions for a device without an FPU (check __FPU_PRESENT)"
 149:/home/arpit/studies/pes/Blinkenlights/CMSIS/core_cm0plus.h ****   #endif
 150:/home/arpit/studies/pes/Blinkenlights/CMSIS/core_cm0plus.h **** 
 151:/home/arpit/studies/pes/Blinkenlights/CMSIS/core_cm0plus.h **** #elif defined ( __TASKING__ )
 152:/home/arpit/studies/pes/Blinkenlights/CMSIS/core_cm0plus.h ****   #if defined __FPU_VFP__
 153:/home/arpit/studies/pes/Blinkenlights/CMSIS/core_cm0plus.h ****     #error "Compiler generates FPU instructions for a device without an FPU (check __FPU_PRESENT)"
 154:/home/arpit/studies/pes/Blinkenlights/CMSIS/core_cm0plus.h ****   #endif
 155:/home/arpit/studies/pes/Blinkenlights/CMSIS/core_cm0plus.h **** 
 156:/home/arpit/studies/pes/Blinkenlights/CMSIS/core_cm0plus.h **** #elif defined ( __CSMC__ )
 157:/home/arpit/studies/pes/Blinkenlights/CMSIS/core_cm0plus.h ****   #if ( __CSMC__ & 0x400U)
 158:/home/arpit/studies/pes/Blinkenlights/CMSIS/core_cm0plus.h ****     #error "Compiler generates FPU instructions for a device without an FPU (check __FPU_PRESENT)"
 159:/home/arpit/studies/pes/Blinkenlights/CMSIS/core_cm0plus.h ****   #endif
 160:/home/arpit/studies/pes/Blinkenlights/CMSIS/core_cm0plus.h **** 
 161:/home/arpit/studies/pes/Blinkenlights/CMSIS/core_cm0plus.h **** #endif
 162:/home/arpit/studies/pes/Blinkenlights/CMSIS/core_cm0plus.h **** 
 163:/home/arpit/studies/pes/Blinkenlights/CMSIS/core_cm0plus.h **** #include "core_cmInstr.h"                /* Core Instruction Access */
 164:/home/arpit/studies/pes/Blinkenlights/CMSIS/core_cm0plus.h **** #include "core_cmFunc.h"                 /* Core Function Access */
 165:/home/arpit/studies/pes/Blinkenlights/CMSIS/core_cm0plus.h **** 
 166:/home/arpit/studies/pes/Blinkenlights/CMSIS/core_cm0plus.h **** #ifdef __cplusplus
 167:/home/arpit/studies/pes/Blinkenlights/CMSIS/core_cm0plus.h **** }
 168:/home/arpit/studies/pes/Blinkenlights/CMSIS/core_cm0plus.h **** #endif
 169:/home/arpit/studies/pes/Blinkenlights/CMSIS/core_cm0plus.h **** 
 170:/home/arpit/studies/pes/Blinkenlights/CMSIS/core_cm0plus.h **** #endif /* __CORE_CM0PLUS_H_GENERIC */
 171:/home/arpit/studies/pes/Blinkenlights/CMSIS/core_cm0plus.h **** 
 172:/home/arpit/studies/pes/Blinkenlights/CMSIS/core_cm0plus.h **** #ifndef __CMSIS_GENERIC
 173:/home/arpit/studies/pes/Blinkenlights/CMSIS/core_cm0plus.h **** 
 174:/home/arpit/studies/pes/Blinkenlights/CMSIS/core_cm0plus.h **** #ifndef __CORE_CM0PLUS_H_DEPENDANT
 175:/home/arpit/studies/pes/Blinkenlights/CMSIS/core_cm0plus.h **** #define __CORE_CM0PLUS_H_DEPENDANT
 176:/home/arpit/studies/pes/Blinkenlights/CMSIS/core_cm0plus.h **** 
 177:/home/arpit/studies/pes/Blinkenlights/CMSIS/core_cm0plus.h **** #ifdef __cplusplus
 178:/home/arpit/studies/pes/Blinkenlights/CMSIS/core_cm0plus.h ****  extern "C" {
 179:/home/arpit/studies/pes/Blinkenlights/CMSIS/core_cm0plus.h **** #endif
 180:/home/arpit/studies/pes/Blinkenlights/CMSIS/core_cm0plus.h **** 
 181:/home/arpit/studies/pes/Blinkenlights/CMSIS/core_cm0plus.h **** /* check device defines and use defaults */
 182:/home/arpit/studies/pes/Blinkenlights/CMSIS/core_cm0plus.h **** #if defined __CHECK_DEVICE_DEFINES
 183:/home/arpit/studies/pes/Blinkenlights/CMSIS/core_cm0plus.h ****   #ifndef __CM0PLUS_REV
 184:/home/arpit/studies/pes/Blinkenlights/CMSIS/core_cm0plus.h ****     #define __CM0PLUS_REV             0x0000U
 185:/home/arpit/studies/pes/Blinkenlights/CMSIS/core_cm0plus.h ****     #warning "__CM0PLUS_REV not defined in device header file; using default!"
 186:/home/arpit/studies/pes/Blinkenlights/CMSIS/core_cm0plus.h ****   #endif
 187:/home/arpit/studies/pes/Blinkenlights/CMSIS/core_cm0plus.h **** 
 188:/home/arpit/studies/pes/Blinkenlights/CMSIS/core_cm0plus.h ****   #ifndef __MPU_PRESENT
 189:/home/arpit/studies/pes/Blinkenlights/CMSIS/core_cm0plus.h ****     #define __MPU_PRESENT             0U
 190:/home/arpit/studies/pes/Blinkenlights/CMSIS/core_cm0plus.h ****     #warning "__MPU_PRESENT not defined in device header file; using default!"
 191:/home/arpit/studies/pes/Blinkenlights/CMSIS/core_cm0plus.h ****   #endif
 192:/home/arpit/studies/pes/Blinkenlights/CMSIS/core_cm0plus.h **** 
 193:/home/arpit/studies/pes/Blinkenlights/CMSIS/core_cm0plus.h ****   #ifndef __VTOR_PRESENT
 194:/home/arpit/studies/pes/Blinkenlights/CMSIS/core_cm0plus.h ****     #define __VTOR_PRESENT            0U
 195:/home/arpit/studies/pes/Blinkenlights/CMSIS/core_cm0plus.h ****     #warning "__VTOR_PRESENT not defined in device header file; using default!"
 196:/home/arpit/studies/pes/Blinkenlights/CMSIS/core_cm0plus.h ****   #endif
 197:/home/arpit/studies/pes/Blinkenlights/CMSIS/core_cm0plus.h **** 
 198:/home/arpit/studies/pes/Blinkenlights/CMSIS/core_cm0plus.h ****   #ifndef __NVIC_PRIO_BITS
 199:/home/arpit/studies/pes/Blinkenlights/CMSIS/core_cm0plus.h ****     #define __NVIC_PRIO_BITS          2U
 200:/home/arpit/studies/pes/Blinkenlights/CMSIS/core_cm0plus.h ****     #warning "__NVIC_PRIO_BITS not defined in device header file; using default!"
 201:/home/arpit/studies/pes/Blinkenlights/CMSIS/core_cm0plus.h ****   #endif
 202:/home/arpit/studies/pes/Blinkenlights/CMSIS/core_cm0plus.h **** 
 203:/home/arpit/studies/pes/Blinkenlights/CMSIS/core_cm0plus.h ****   #ifndef __Vendor_SysTickConfig
 204:/home/arpit/studies/pes/Blinkenlights/CMSIS/core_cm0plus.h ****     #define __Vendor_SysTickConfig    0U
 205:/home/arpit/studies/pes/Blinkenlights/CMSIS/core_cm0plus.h ****     #warning "__Vendor_SysTickConfig not defined in device header file; using default!"
 206:/home/arpit/studies/pes/Blinkenlights/CMSIS/core_cm0plus.h ****   #endif
 207:/home/arpit/studies/pes/Blinkenlights/CMSIS/core_cm0plus.h **** #endif
 208:/home/arpit/studies/pes/Blinkenlights/CMSIS/core_cm0plus.h **** 
 209:/home/arpit/studies/pes/Blinkenlights/CMSIS/core_cm0plus.h **** /* IO definitions (access restrictions to peripheral registers) */
 210:/home/arpit/studies/pes/Blinkenlights/CMSIS/core_cm0plus.h **** /**
 211:/home/arpit/studies/pes/Blinkenlights/CMSIS/core_cm0plus.h ****     \defgroup CMSIS_glob_defs CMSIS Global Defines
 212:/home/arpit/studies/pes/Blinkenlights/CMSIS/core_cm0plus.h **** 
 213:/home/arpit/studies/pes/Blinkenlights/CMSIS/core_cm0plus.h ****     <strong>IO Type Qualifiers</strong> are used
 214:/home/arpit/studies/pes/Blinkenlights/CMSIS/core_cm0plus.h ****     \li to specify the access to peripheral variables.
 215:/home/arpit/studies/pes/Blinkenlights/CMSIS/core_cm0plus.h ****     \li for automatic generation of peripheral register debug information.
 216:/home/arpit/studies/pes/Blinkenlights/CMSIS/core_cm0plus.h **** */
 217:/home/arpit/studies/pes/Blinkenlights/CMSIS/core_cm0plus.h **** #ifdef __cplusplus
 218:/home/arpit/studies/pes/Blinkenlights/CMSIS/core_cm0plus.h ****   #define   __I     volatile             /*!< Defines 'read only' permissions */
 219:/home/arpit/studies/pes/Blinkenlights/CMSIS/core_cm0plus.h **** #else
 220:/home/arpit/studies/pes/Blinkenlights/CMSIS/core_cm0plus.h ****   #define   __I     volatile const       /*!< Defines 'read only' permissions */
 221:/home/arpit/studies/pes/Blinkenlights/CMSIS/core_cm0plus.h **** #endif
 222:/home/arpit/studies/pes/Blinkenlights/CMSIS/core_cm0plus.h **** #define     __O     volatile             /*!< Defines 'write only' permissions */
 223:/home/arpit/studies/pes/Blinkenlights/CMSIS/core_cm0plus.h **** #define     __IO    volatile             /*!< Defines 'read / write' permissions */
 224:/home/arpit/studies/pes/Blinkenlights/CMSIS/core_cm0plus.h **** 
 225:/home/arpit/studies/pes/Blinkenlights/CMSIS/core_cm0plus.h **** /* following defines should be used for structure members */
 226:/home/arpit/studies/pes/Blinkenlights/CMSIS/core_cm0plus.h **** #define     __IM     volatile const      /*! Defines 'read only' structure member permissions */
 227:/home/arpit/studies/pes/Blinkenlights/CMSIS/core_cm0plus.h **** #define     __OM     volatile            /*! Defines 'write only' structure member permissions */
 228:/home/arpit/studies/pes/Blinkenlights/CMSIS/core_cm0plus.h **** #define     __IOM    volatile            /*! Defines 'read / write' structure member permissions */
 229:/home/arpit/studies/pes/Blinkenlights/CMSIS/core_cm0plus.h **** 
 230:/home/arpit/studies/pes/Blinkenlights/CMSIS/core_cm0plus.h **** /*@} end of group Cortex-M0+ */
 231:/home/arpit/studies/pes/Blinkenlights/CMSIS/core_cm0plus.h **** 
 232:/home/arpit/studies/pes/Blinkenlights/CMSIS/core_cm0plus.h **** 
 233:/home/arpit/studies/pes/Blinkenlights/CMSIS/core_cm0plus.h **** 
 234:/home/arpit/studies/pes/Blinkenlights/CMSIS/core_cm0plus.h **** /*******************************************************************************
 235:/home/arpit/studies/pes/Blinkenlights/CMSIS/core_cm0plus.h ****  *                 Register Abstraction
 236:/home/arpit/studies/pes/Blinkenlights/CMSIS/core_cm0plus.h ****   Core Register contain:
 237:/home/arpit/studies/pes/Blinkenlights/CMSIS/core_cm0plus.h ****   - Core Register
 238:/home/arpit/studies/pes/Blinkenlights/CMSIS/core_cm0plus.h ****   - Core NVIC Register
 239:/home/arpit/studies/pes/Blinkenlights/CMSIS/core_cm0plus.h ****   - Core SCB Register
 240:/home/arpit/studies/pes/Blinkenlights/CMSIS/core_cm0plus.h ****   - Core SysTick Register
 241:/home/arpit/studies/pes/Blinkenlights/CMSIS/core_cm0plus.h ****   - Core MPU Register
 242:/home/arpit/studies/pes/Blinkenlights/CMSIS/core_cm0plus.h ****  ******************************************************************************/
 243:/home/arpit/studies/pes/Blinkenlights/CMSIS/core_cm0plus.h **** /**
 244:/home/arpit/studies/pes/Blinkenlights/CMSIS/core_cm0plus.h ****   \defgroup CMSIS_core_register Defines and Type Definitions
 245:/home/arpit/studies/pes/Blinkenlights/CMSIS/core_cm0plus.h ****   \brief Type definitions and defines for Cortex-M processor based devices.
 246:/home/arpit/studies/pes/Blinkenlights/CMSIS/core_cm0plus.h **** */
 247:/home/arpit/studies/pes/Blinkenlights/CMSIS/core_cm0plus.h **** 
 248:/home/arpit/studies/pes/Blinkenlights/CMSIS/core_cm0plus.h **** /**
 249:/home/arpit/studies/pes/Blinkenlights/CMSIS/core_cm0plus.h ****   \ingroup    CMSIS_core_register
 250:/home/arpit/studies/pes/Blinkenlights/CMSIS/core_cm0plus.h ****   \defgroup   CMSIS_CORE  Status and Control Registers
 251:/home/arpit/studies/pes/Blinkenlights/CMSIS/core_cm0plus.h ****   \brief      Core Register type definitions.
 252:/home/arpit/studies/pes/Blinkenlights/CMSIS/core_cm0plus.h ****   @{
 253:/home/arpit/studies/pes/Blinkenlights/CMSIS/core_cm0plus.h ****  */
 254:/home/arpit/studies/pes/Blinkenlights/CMSIS/core_cm0plus.h **** 
 255:/home/arpit/studies/pes/Blinkenlights/CMSIS/core_cm0plus.h **** /**
 256:/home/arpit/studies/pes/Blinkenlights/CMSIS/core_cm0plus.h ****   \brief  Union type to access the Application Program Status Register (APSR).
 257:/home/arpit/studies/pes/Blinkenlights/CMSIS/core_cm0plus.h ****  */
 258:/home/arpit/studies/pes/Blinkenlights/CMSIS/core_cm0plus.h **** typedef union
 259:/home/arpit/studies/pes/Blinkenlights/CMSIS/core_cm0plus.h **** {
 260:/home/arpit/studies/pes/Blinkenlights/CMSIS/core_cm0plus.h ****   struct
 261:/home/arpit/studies/pes/Blinkenlights/CMSIS/core_cm0plus.h ****   {
 262:/home/arpit/studies/pes/Blinkenlights/CMSIS/core_cm0plus.h ****     uint32_t _reserved0:28;              /*!< bit:  0..27  Reserved */
 263:/home/arpit/studies/pes/Blinkenlights/CMSIS/core_cm0plus.h ****     uint32_t V:1;                        /*!< bit:     28  Overflow condition code flag */
 264:/home/arpit/studies/pes/Blinkenlights/CMSIS/core_cm0plus.h ****     uint32_t C:1;                        /*!< bit:     29  Carry condition code flag */
 265:/home/arpit/studies/pes/Blinkenlights/CMSIS/core_cm0plus.h ****     uint32_t Z:1;                        /*!< bit:     30  Zero condition code flag */
 266:/home/arpit/studies/pes/Blinkenlights/CMSIS/core_cm0plus.h ****     uint32_t N:1;                        /*!< bit:     31  Negative condition code flag */
 267:/home/arpit/studies/pes/Blinkenlights/CMSIS/core_cm0plus.h ****   } b;                                   /*!< Structure used for bit  access */
 268:/home/arpit/studies/pes/Blinkenlights/CMSIS/core_cm0plus.h ****   uint32_t w;                            /*!< Type      used for word access */
 269:/home/arpit/studies/pes/Blinkenlights/CMSIS/core_cm0plus.h **** } APSR_Type;
 270:/home/arpit/studies/pes/Blinkenlights/CMSIS/core_cm0plus.h **** 
 271:/home/arpit/studies/pes/Blinkenlights/CMSIS/core_cm0plus.h **** /* APSR Register Definitions */
 272:/home/arpit/studies/pes/Blinkenlights/CMSIS/core_cm0plus.h **** #define APSR_N_Pos                         31U                                            /*!< APSR
 273:/home/arpit/studies/pes/Blinkenlights/CMSIS/core_cm0plus.h **** #define APSR_N_Msk                         (1UL << APSR_N_Pos)                            /*!< APSR
 274:/home/arpit/studies/pes/Blinkenlights/CMSIS/core_cm0plus.h **** 
 275:/home/arpit/studies/pes/Blinkenlights/CMSIS/core_cm0plus.h **** #define APSR_Z_Pos                         30U                                            /*!< APSR
 276:/home/arpit/studies/pes/Blinkenlights/CMSIS/core_cm0plus.h **** #define APSR_Z_Msk                         (1UL << APSR_Z_Pos)                            /*!< APSR
 277:/home/arpit/studies/pes/Blinkenlights/CMSIS/core_cm0plus.h **** 
 278:/home/arpit/studies/pes/Blinkenlights/CMSIS/core_cm0plus.h **** #define APSR_C_Pos                         29U                                            /*!< APSR
 279:/home/arpit/studies/pes/Blinkenlights/CMSIS/core_cm0plus.h **** #define APSR_C_Msk                         (1UL << APSR_C_Pos)                            /*!< APSR
 280:/home/arpit/studies/pes/Blinkenlights/CMSIS/core_cm0plus.h **** 
 281:/home/arpit/studies/pes/Blinkenlights/CMSIS/core_cm0plus.h **** #define APSR_V_Pos                         28U                                            /*!< APSR
 282:/home/arpit/studies/pes/Blinkenlights/CMSIS/core_cm0plus.h **** #define APSR_V_Msk                         (1UL << APSR_V_Pos)                            /*!< APSR
 283:/home/arpit/studies/pes/Blinkenlights/CMSIS/core_cm0plus.h **** 
 284:/home/arpit/studies/pes/Blinkenlights/CMSIS/core_cm0plus.h **** 
 285:/home/arpit/studies/pes/Blinkenlights/CMSIS/core_cm0plus.h **** /**
 286:/home/arpit/studies/pes/Blinkenlights/CMSIS/core_cm0plus.h ****   \brief  Union type to access the Interrupt Program Status Register (IPSR).
 287:/home/arpit/studies/pes/Blinkenlights/CMSIS/core_cm0plus.h ****  */
 288:/home/arpit/studies/pes/Blinkenlights/CMSIS/core_cm0plus.h **** typedef union
 289:/home/arpit/studies/pes/Blinkenlights/CMSIS/core_cm0plus.h **** {
 290:/home/arpit/studies/pes/Blinkenlights/CMSIS/core_cm0plus.h ****   struct
 291:/home/arpit/studies/pes/Blinkenlights/CMSIS/core_cm0plus.h ****   {
 292:/home/arpit/studies/pes/Blinkenlights/CMSIS/core_cm0plus.h ****     uint32_t ISR:9;                      /*!< bit:  0.. 8  Exception number */
 293:/home/arpit/studies/pes/Blinkenlights/CMSIS/core_cm0plus.h ****     uint32_t _reserved0:23;              /*!< bit:  9..31  Reserved */
 294:/home/arpit/studies/pes/Blinkenlights/CMSIS/core_cm0plus.h ****   } b;                                   /*!< Structure used for bit  access */
 295:/home/arpit/studies/pes/Blinkenlights/CMSIS/core_cm0plus.h ****   uint32_t w;                            /*!< Type      used for word access */
 296:/home/arpit/studies/pes/Blinkenlights/CMSIS/core_cm0plus.h **** } IPSR_Type;
 297:/home/arpit/studies/pes/Blinkenlights/CMSIS/core_cm0plus.h **** 
 298:/home/arpit/studies/pes/Blinkenlights/CMSIS/core_cm0plus.h **** /* IPSR Register Definitions */
 299:/home/arpit/studies/pes/Blinkenlights/CMSIS/core_cm0plus.h **** #define IPSR_ISR_Pos                        0U                                            /*!< IPSR
 300:/home/arpit/studies/pes/Blinkenlights/CMSIS/core_cm0plus.h **** #define IPSR_ISR_Msk                       (0x1FFUL /*<< IPSR_ISR_Pos*/)                  /*!< IPSR
 301:/home/arpit/studies/pes/Blinkenlights/CMSIS/core_cm0plus.h **** 
 302:/home/arpit/studies/pes/Blinkenlights/CMSIS/core_cm0plus.h **** 
 303:/home/arpit/studies/pes/Blinkenlights/CMSIS/core_cm0plus.h **** /**
 304:/home/arpit/studies/pes/Blinkenlights/CMSIS/core_cm0plus.h ****   \brief  Union type to access the Special-Purpose Program Status Registers (xPSR).
 305:/home/arpit/studies/pes/Blinkenlights/CMSIS/core_cm0plus.h ****  */
 306:/home/arpit/studies/pes/Blinkenlights/CMSIS/core_cm0plus.h **** typedef union
 307:/home/arpit/studies/pes/Blinkenlights/CMSIS/core_cm0plus.h **** {
 308:/home/arpit/studies/pes/Blinkenlights/CMSIS/core_cm0plus.h ****   struct
 309:/home/arpit/studies/pes/Blinkenlights/CMSIS/core_cm0plus.h ****   {
 310:/home/arpit/studies/pes/Blinkenlights/CMSIS/core_cm0plus.h ****     uint32_t ISR:9;                      /*!< bit:  0.. 8  Exception number */
 311:/home/arpit/studies/pes/Blinkenlights/CMSIS/core_cm0plus.h ****     uint32_t _reserved0:15;              /*!< bit:  9..23  Reserved */
 312:/home/arpit/studies/pes/Blinkenlights/CMSIS/core_cm0plus.h ****     uint32_t T:1;                        /*!< bit:     24  Thumb bit        (read 0) */
 313:/home/arpit/studies/pes/Blinkenlights/CMSIS/core_cm0plus.h ****     uint32_t _reserved1:3;               /*!< bit: 25..27  Reserved */
 314:/home/arpit/studies/pes/Blinkenlights/CMSIS/core_cm0plus.h ****     uint32_t V:1;                        /*!< bit:     28  Overflow condition code flag */
 315:/home/arpit/studies/pes/Blinkenlights/CMSIS/core_cm0plus.h ****     uint32_t C:1;                        /*!< bit:     29  Carry condition code flag */
 316:/home/arpit/studies/pes/Blinkenlights/CMSIS/core_cm0plus.h ****     uint32_t Z:1;                        /*!< bit:     30  Zero condition code flag */
 317:/home/arpit/studies/pes/Blinkenlights/CMSIS/core_cm0plus.h ****     uint32_t N:1;                        /*!< bit:     31  Negative condition code flag */
 318:/home/arpit/studies/pes/Blinkenlights/CMSIS/core_cm0plus.h ****   } b;                                   /*!< Structure used for bit  access */
 319:/home/arpit/studies/pes/Blinkenlights/CMSIS/core_cm0plus.h ****   uint32_t w;                            /*!< Type      used for word access */
 320:/home/arpit/studies/pes/Blinkenlights/CMSIS/core_cm0plus.h **** } xPSR_Type;
 321:/home/arpit/studies/pes/Blinkenlights/CMSIS/core_cm0plus.h **** 
 322:/home/arpit/studies/pes/Blinkenlights/CMSIS/core_cm0plus.h **** /* xPSR Register Definitions */
 323:/home/arpit/studies/pes/Blinkenlights/CMSIS/core_cm0plus.h **** #define xPSR_N_Pos                         31U                                            /*!< xPSR
 324:/home/arpit/studies/pes/Blinkenlights/CMSIS/core_cm0plus.h **** #define xPSR_N_Msk                         (1UL << xPSR_N_Pos)                            /*!< xPSR
 325:/home/arpit/studies/pes/Blinkenlights/CMSIS/core_cm0plus.h **** 
 326:/home/arpit/studies/pes/Blinkenlights/CMSIS/core_cm0plus.h **** #define xPSR_Z_Pos                         30U                                            /*!< xPSR
 327:/home/arpit/studies/pes/Blinkenlights/CMSIS/core_cm0plus.h **** #define xPSR_Z_Msk                         (1UL << xPSR_Z_Pos)                            /*!< xPSR
 328:/home/arpit/studies/pes/Blinkenlights/CMSIS/core_cm0plus.h **** 
 329:/home/arpit/studies/pes/Blinkenlights/CMSIS/core_cm0plus.h **** #define xPSR_C_Pos                         29U                                            /*!< xPSR
 330:/home/arpit/studies/pes/Blinkenlights/CMSIS/core_cm0plus.h **** #define xPSR_C_Msk                         (1UL << xPSR_C_Pos)                            /*!< xPSR
 331:/home/arpit/studies/pes/Blinkenlights/CMSIS/core_cm0plus.h **** 
 332:/home/arpit/studies/pes/Blinkenlights/CMSIS/core_cm0plus.h **** #define xPSR_V_Pos                         28U                                            /*!< xPSR
 333:/home/arpit/studies/pes/Blinkenlights/CMSIS/core_cm0plus.h **** #define xPSR_V_Msk                         (1UL << xPSR_V_Pos)                            /*!< xPSR
 334:/home/arpit/studies/pes/Blinkenlights/CMSIS/core_cm0plus.h **** 
 335:/home/arpit/studies/pes/Blinkenlights/CMSIS/core_cm0plus.h **** #define xPSR_T_Pos                         24U                                            /*!< xPSR
 336:/home/arpit/studies/pes/Blinkenlights/CMSIS/core_cm0plus.h **** #define xPSR_T_Msk                         (1UL << xPSR_T_Pos)                            /*!< xPSR
 337:/home/arpit/studies/pes/Blinkenlights/CMSIS/core_cm0plus.h **** 
 338:/home/arpit/studies/pes/Blinkenlights/CMSIS/core_cm0plus.h **** #define xPSR_ISR_Pos                        0U                                            /*!< xPSR
 339:/home/arpit/studies/pes/Blinkenlights/CMSIS/core_cm0plus.h **** #define xPSR_ISR_Msk                       (0x1FFUL /*<< xPSR_ISR_Pos*/)                  /*!< xPSR
 340:/home/arpit/studies/pes/Blinkenlights/CMSIS/core_cm0plus.h **** 
 341:/home/arpit/studies/pes/Blinkenlights/CMSIS/core_cm0plus.h **** 
 342:/home/arpit/studies/pes/Blinkenlights/CMSIS/core_cm0plus.h **** /**
 343:/home/arpit/studies/pes/Blinkenlights/CMSIS/core_cm0plus.h ****   \brief  Union type to access the Control Registers (CONTROL).
 344:/home/arpit/studies/pes/Blinkenlights/CMSIS/core_cm0plus.h ****  */
 345:/home/arpit/studies/pes/Blinkenlights/CMSIS/core_cm0plus.h **** typedef union
 346:/home/arpit/studies/pes/Blinkenlights/CMSIS/core_cm0plus.h **** {
 347:/home/arpit/studies/pes/Blinkenlights/CMSIS/core_cm0plus.h ****   struct
 348:/home/arpit/studies/pes/Blinkenlights/CMSIS/core_cm0plus.h ****   {
 349:/home/arpit/studies/pes/Blinkenlights/CMSIS/core_cm0plus.h ****     uint32_t nPRIV:1;                    /*!< bit:      0  Execution privilege in Thread mode */
 350:/home/arpit/studies/pes/Blinkenlights/CMSIS/core_cm0plus.h ****     uint32_t SPSEL:1;                    /*!< bit:      1  Stack to be used */
 351:/home/arpit/studies/pes/Blinkenlights/CMSIS/core_cm0plus.h ****     uint32_t _reserved1:30;              /*!< bit:  2..31  Reserved */
 352:/home/arpit/studies/pes/Blinkenlights/CMSIS/core_cm0plus.h ****   } b;                                   /*!< Structure used for bit  access */
 353:/home/arpit/studies/pes/Blinkenlights/CMSIS/core_cm0plus.h ****   uint32_t w;                            /*!< Type      used for word access */
 354:/home/arpit/studies/pes/Blinkenlights/CMSIS/core_cm0plus.h **** } CONTROL_Type;
 355:/home/arpit/studies/pes/Blinkenlights/CMSIS/core_cm0plus.h **** 
 356:/home/arpit/studies/pes/Blinkenlights/CMSIS/core_cm0plus.h **** /* CONTROL Register Definitions */
 357:/home/arpit/studies/pes/Blinkenlights/CMSIS/core_cm0plus.h **** #define CONTROL_SPSEL_Pos                   1U                                            /*!< CONT
 358:/home/arpit/studies/pes/Blinkenlights/CMSIS/core_cm0plus.h **** #define CONTROL_SPSEL_Msk                  (1UL << CONTROL_SPSEL_Pos)                     /*!< CONT
 359:/home/arpit/studies/pes/Blinkenlights/CMSIS/core_cm0plus.h **** 
 360:/home/arpit/studies/pes/Blinkenlights/CMSIS/core_cm0plus.h **** #define CONTROL_nPRIV_Pos                   0U                                            /*!< CONT
 361:/home/arpit/studies/pes/Blinkenlights/CMSIS/core_cm0plus.h **** #define CONTROL_nPRIV_Msk                  (1UL /*<< CONTROL_nPRIV_Pos*/)                 /*!< CONT
 362:/home/arpit/studies/pes/Blinkenlights/CMSIS/core_cm0plus.h **** 
 363:/home/arpit/studies/pes/Blinkenlights/CMSIS/core_cm0plus.h **** /*@} end of group CMSIS_CORE */
 364:/home/arpit/studies/pes/Blinkenlights/CMSIS/core_cm0plus.h **** 
 365:/home/arpit/studies/pes/Blinkenlights/CMSIS/core_cm0plus.h **** 
 366:/home/arpit/studies/pes/Blinkenlights/CMSIS/core_cm0plus.h **** /**
 367:/home/arpit/studies/pes/Blinkenlights/CMSIS/core_cm0plus.h ****   \ingroup    CMSIS_core_register
 368:/home/arpit/studies/pes/Blinkenlights/CMSIS/core_cm0plus.h ****   \defgroup   CMSIS_NVIC  Nested Vectored Interrupt Controller (NVIC)
 369:/home/arpit/studies/pes/Blinkenlights/CMSIS/core_cm0plus.h ****   \brief      Type definitions for the NVIC Registers
 370:/home/arpit/studies/pes/Blinkenlights/CMSIS/core_cm0plus.h ****   @{
 371:/home/arpit/studies/pes/Blinkenlights/CMSIS/core_cm0plus.h ****  */
 372:/home/arpit/studies/pes/Blinkenlights/CMSIS/core_cm0plus.h **** 
 373:/home/arpit/studies/pes/Blinkenlights/CMSIS/core_cm0plus.h **** /**
 374:/home/arpit/studies/pes/Blinkenlights/CMSIS/core_cm0plus.h ****   \brief  Structure type to access the Nested Vectored Interrupt Controller (NVIC).
 375:/home/arpit/studies/pes/Blinkenlights/CMSIS/core_cm0plus.h ****  */
 376:/home/arpit/studies/pes/Blinkenlights/CMSIS/core_cm0plus.h **** typedef struct
 377:/home/arpit/studies/pes/Blinkenlights/CMSIS/core_cm0plus.h **** {
 378:/home/arpit/studies/pes/Blinkenlights/CMSIS/core_cm0plus.h ****   __IOM uint32_t ISER[1U];               /*!< Offset: 0x000 (R/W)  Interrupt Set Enable Register */
 379:/home/arpit/studies/pes/Blinkenlights/CMSIS/core_cm0plus.h ****         uint32_t RESERVED0[31U];
 380:/home/arpit/studies/pes/Blinkenlights/CMSIS/core_cm0plus.h ****   __IOM uint32_t ICER[1U];               /*!< Offset: 0x080 (R/W)  Interrupt Clear Enable Register 
 381:/home/arpit/studies/pes/Blinkenlights/CMSIS/core_cm0plus.h ****         uint32_t RSERVED1[31U];
 382:/home/arpit/studies/pes/Blinkenlights/CMSIS/core_cm0plus.h ****   __IOM uint32_t ISPR[1U];               /*!< Offset: 0x100 (R/W)  Interrupt Set Pending Register *
 383:/home/arpit/studies/pes/Blinkenlights/CMSIS/core_cm0plus.h ****         uint32_t RESERVED2[31U];
 384:/home/arpit/studies/pes/Blinkenlights/CMSIS/core_cm0plus.h ****   __IOM uint32_t ICPR[1U];               /*!< Offset: 0x180 (R/W)  Interrupt Clear Pending Register
 385:/home/arpit/studies/pes/Blinkenlights/CMSIS/core_cm0plus.h ****         uint32_t RESERVED3[31U];
 386:/home/arpit/studies/pes/Blinkenlights/CMSIS/core_cm0plus.h ****         uint32_t RESERVED4[64U];
 387:/home/arpit/studies/pes/Blinkenlights/CMSIS/core_cm0plus.h ****   __IOM uint32_t IP[8U];                 /*!< Offset: 0x300 (R/W)  Interrupt Priority Register */
 388:/home/arpit/studies/pes/Blinkenlights/CMSIS/core_cm0plus.h **** }  NVIC_Type;
 389:/home/arpit/studies/pes/Blinkenlights/CMSIS/core_cm0plus.h **** 
 390:/home/arpit/studies/pes/Blinkenlights/CMSIS/core_cm0plus.h **** /*@} end of group CMSIS_NVIC */
 391:/home/arpit/studies/pes/Blinkenlights/CMSIS/core_cm0plus.h **** 
 392:/home/arpit/studies/pes/Blinkenlights/CMSIS/core_cm0plus.h **** 
 393:/home/arpit/studies/pes/Blinkenlights/CMSIS/core_cm0plus.h **** /**
 394:/home/arpit/studies/pes/Blinkenlights/CMSIS/core_cm0plus.h ****   \ingroup  CMSIS_core_register
 395:/home/arpit/studies/pes/Blinkenlights/CMSIS/core_cm0plus.h ****   \defgroup CMSIS_SCB     System Control Block (SCB)
 396:/home/arpit/studies/pes/Blinkenlights/CMSIS/core_cm0plus.h ****   \brief    Type definitions for the System Control Block Registers
 397:/home/arpit/studies/pes/Blinkenlights/CMSIS/core_cm0plus.h ****   @{
 398:/home/arpit/studies/pes/Blinkenlights/CMSIS/core_cm0plus.h ****  */
 399:/home/arpit/studies/pes/Blinkenlights/CMSIS/core_cm0plus.h **** 
 400:/home/arpit/studies/pes/Blinkenlights/CMSIS/core_cm0plus.h **** /**
 401:/home/arpit/studies/pes/Blinkenlights/CMSIS/core_cm0plus.h ****   \brief  Structure type to access the System Control Block (SCB).
 402:/home/arpit/studies/pes/Blinkenlights/CMSIS/core_cm0plus.h ****  */
 403:/home/arpit/studies/pes/Blinkenlights/CMSIS/core_cm0plus.h **** typedef struct
 404:/home/arpit/studies/pes/Blinkenlights/CMSIS/core_cm0plus.h **** {
 405:/home/arpit/studies/pes/Blinkenlights/CMSIS/core_cm0plus.h ****   __IM  uint32_t CPUID;                  /*!< Offset: 0x000 (R/ )  CPUID Base Register */
 406:/home/arpit/studies/pes/Blinkenlights/CMSIS/core_cm0plus.h ****   __IOM uint32_t ICSR;                   /*!< Offset: 0x004 (R/W)  Interrupt Control and State Regi
 407:/home/arpit/studies/pes/Blinkenlights/CMSIS/core_cm0plus.h **** #if (__VTOR_PRESENT == 1U)
 408:/home/arpit/studies/pes/Blinkenlights/CMSIS/core_cm0plus.h ****   __IOM uint32_t VTOR;                   /*!< Offset: 0x008 (R/W)  Vector Table Offset Register */
 409:/home/arpit/studies/pes/Blinkenlights/CMSIS/core_cm0plus.h **** #else
 410:/home/arpit/studies/pes/Blinkenlights/CMSIS/core_cm0plus.h ****         uint32_t RESERVED0;
 411:/home/arpit/studies/pes/Blinkenlights/CMSIS/core_cm0plus.h **** #endif
 412:/home/arpit/studies/pes/Blinkenlights/CMSIS/core_cm0plus.h ****   __IOM uint32_t AIRCR;                  /*!< Offset: 0x00C (R/W)  Application Interrupt and Reset 
 413:/home/arpit/studies/pes/Blinkenlights/CMSIS/core_cm0plus.h ****   __IOM uint32_t SCR;                    /*!< Offset: 0x010 (R/W)  System Control Register */
 414:/home/arpit/studies/pes/Blinkenlights/CMSIS/core_cm0plus.h ****   __IOM uint32_t CCR;                    /*!< Offset: 0x014 (R/W)  Configuration Control Register *
 415:/home/arpit/studies/pes/Blinkenlights/CMSIS/core_cm0plus.h ****         uint32_t RESERVED1;
 416:/home/arpit/studies/pes/Blinkenlights/CMSIS/core_cm0plus.h ****   __IOM uint32_t SHP[2U];                /*!< Offset: 0x01C (R/W)  System Handlers Priority Registe
 417:/home/arpit/studies/pes/Blinkenlights/CMSIS/core_cm0plus.h ****   __IOM uint32_t SHCSR;                  /*!< Offset: 0x024 (R/W)  System Handler Control and State
 418:/home/arpit/studies/pes/Blinkenlights/CMSIS/core_cm0plus.h **** } SCB_Type;
 419:/home/arpit/studies/pes/Blinkenlights/CMSIS/core_cm0plus.h **** 
 420:/home/arpit/studies/pes/Blinkenlights/CMSIS/core_cm0plus.h **** /* SCB CPUID Register Definitions */
 421:/home/arpit/studies/pes/Blinkenlights/CMSIS/core_cm0plus.h **** #define SCB_CPUID_IMPLEMENTER_Pos          24U                                            /*!< SCB 
 422:/home/arpit/studies/pes/Blinkenlights/CMSIS/core_cm0plus.h **** #define SCB_CPUID_IMPLEMENTER_Msk          (0xFFUL << SCB_CPUID_IMPLEMENTER_Pos)          /*!< SCB 
 423:/home/arpit/studies/pes/Blinkenlights/CMSIS/core_cm0plus.h **** 
 424:/home/arpit/studies/pes/Blinkenlights/CMSIS/core_cm0plus.h **** #define SCB_CPUID_VARIANT_Pos              20U                                            /*!< SCB 
 425:/home/arpit/studies/pes/Blinkenlights/CMSIS/core_cm0plus.h **** #define SCB_CPUID_VARIANT_Msk              (0xFUL << SCB_CPUID_VARIANT_Pos)               /*!< SCB 
 426:/home/arpit/studies/pes/Blinkenlights/CMSIS/core_cm0plus.h **** 
 427:/home/arpit/studies/pes/Blinkenlights/CMSIS/core_cm0plus.h **** #define SCB_CPUID_ARCHITECTURE_Pos         16U                                            /*!< SCB 
 428:/home/arpit/studies/pes/Blinkenlights/CMSIS/core_cm0plus.h **** #define SCB_CPUID_ARCHITECTURE_Msk         (0xFUL << SCB_CPUID_ARCHITECTURE_Pos)          /*!< SCB 
 429:/home/arpit/studies/pes/Blinkenlights/CMSIS/core_cm0plus.h **** 
 430:/home/arpit/studies/pes/Blinkenlights/CMSIS/core_cm0plus.h **** #define SCB_CPUID_PARTNO_Pos                4U                                            /*!< SCB 
 431:/home/arpit/studies/pes/Blinkenlights/CMSIS/core_cm0plus.h **** #define SCB_CPUID_PARTNO_Msk               (0xFFFUL << SCB_CPUID_PARTNO_Pos)              /*!< SCB 
 432:/home/arpit/studies/pes/Blinkenlights/CMSIS/core_cm0plus.h **** 
 433:/home/arpit/studies/pes/Blinkenlights/CMSIS/core_cm0plus.h **** #define SCB_CPUID_REVISION_Pos              0U                                            /*!< SCB 
 434:/home/arpit/studies/pes/Blinkenlights/CMSIS/core_cm0plus.h **** #define SCB_CPUID_REVISION_Msk             (0xFUL /*<< SCB_CPUID_REVISION_Pos*/)          /*!< SCB 
 435:/home/arpit/studies/pes/Blinkenlights/CMSIS/core_cm0plus.h **** 
 436:/home/arpit/studies/pes/Blinkenlights/CMSIS/core_cm0plus.h **** /* SCB Interrupt Control State Register Definitions */
 437:/home/arpit/studies/pes/Blinkenlights/CMSIS/core_cm0plus.h **** #define SCB_ICSR_NMIPENDSET_Pos            31U                                            /*!< SCB 
 438:/home/arpit/studies/pes/Blinkenlights/CMSIS/core_cm0plus.h **** #define SCB_ICSR_NMIPENDSET_Msk            (1UL << SCB_ICSR_NMIPENDSET_Pos)               /*!< SCB 
 439:/home/arpit/studies/pes/Blinkenlights/CMSIS/core_cm0plus.h **** 
 440:/home/arpit/studies/pes/Blinkenlights/CMSIS/core_cm0plus.h **** #define SCB_ICSR_PENDSVSET_Pos             28U                                            /*!< SCB 
 441:/home/arpit/studies/pes/Blinkenlights/CMSIS/core_cm0plus.h **** #define SCB_ICSR_PENDSVSET_Msk             (1UL << SCB_ICSR_PENDSVSET_Pos)                /*!< SCB 
 442:/home/arpit/studies/pes/Blinkenlights/CMSIS/core_cm0plus.h **** 
 443:/home/arpit/studies/pes/Blinkenlights/CMSIS/core_cm0plus.h **** #define SCB_ICSR_PENDSVCLR_Pos             27U                                            /*!< SCB 
 444:/home/arpit/studies/pes/Blinkenlights/CMSIS/core_cm0plus.h **** #define SCB_ICSR_PENDSVCLR_Msk             (1UL << SCB_ICSR_PENDSVCLR_Pos)                /*!< SCB 
 445:/home/arpit/studies/pes/Blinkenlights/CMSIS/core_cm0plus.h **** 
 446:/home/arpit/studies/pes/Blinkenlights/CMSIS/core_cm0plus.h **** #define SCB_ICSR_PENDSTSET_Pos             26U                                            /*!< SCB 
 447:/home/arpit/studies/pes/Blinkenlights/CMSIS/core_cm0plus.h **** #define SCB_ICSR_PENDSTSET_Msk             (1UL << SCB_ICSR_PENDSTSET_Pos)                /*!< SCB 
 448:/home/arpit/studies/pes/Blinkenlights/CMSIS/core_cm0plus.h **** 
 449:/home/arpit/studies/pes/Blinkenlights/CMSIS/core_cm0plus.h **** #define SCB_ICSR_PENDSTCLR_Pos             25U                                            /*!< SCB 
 450:/home/arpit/studies/pes/Blinkenlights/CMSIS/core_cm0plus.h **** #define SCB_ICSR_PENDSTCLR_Msk             (1UL << SCB_ICSR_PENDSTCLR_Pos)                /*!< SCB 
 451:/home/arpit/studies/pes/Blinkenlights/CMSIS/core_cm0plus.h **** 
 452:/home/arpit/studies/pes/Blinkenlights/CMSIS/core_cm0plus.h **** #define SCB_ICSR_ISRPREEMPT_Pos            23U                                            /*!< SCB 
 453:/home/arpit/studies/pes/Blinkenlights/CMSIS/core_cm0plus.h **** #define SCB_ICSR_ISRPREEMPT_Msk            (1UL << SCB_ICSR_ISRPREEMPT_Pos)               /*!< SCB 
 454:/home/arpit/studies/pes/Blinkenlights/CMSIS/core_cm0plus.h **** 
 455:/home/arpit/studies/pes/Blinkenlights/CMSIS/core_cm0plus.h **** #define SCB_ICSR_ISRPENDING_Pos            22U                                            /*!< SCB 
 456:/home/arpit/studies/pes/Blinkenlights/CMSIS/core_cm0plus.h **** #define SCB_ICSR_ISRPENDING_Msk            (1UL << SCB_ICSR_ISRPENDING_Pos)               /*!< SCB 
 457:/home/arpit/studies/pes/Blinkenlights/CMSIS/core_cm0plus.h **** 
 458:/home/arpit/studies/pes/Blinkenlights/CMSIS/core_cm0plus.h **** #define SCB_ICSR_VECTPENDING_Pos           12U                                            /*!< SCB 
 459:/home/arpit/studies/pes/Blinkenlights/CMSIS/core_cm0plus.h **** #define SCB_ICSR_VECTPENDING_Msk           (0x1FFUL << SCB_ICSR_VECTPENDING_Pos)          /*!< SCB 
 460:/home/arpit/studies/pes/Blinkenlights/CMSIS/core_cm0plus.h **** 
 461:/home/arpit/studies/pes/Blinkenlights/CMSIS/core_cm0plus.h **** #define SCB_ICSR_VECTACTIVE_Pos             0U                                            /*!< SCB 
 462:/home/arpit/studies/pes/Blinkenlights/CMSIS/core_cm0plus.h **** #define SCB_ICSR_VECTACTIVE_Msk            (0x1FFUL /*<< SCB_ICSR_VECTACTIVE_Pos*/)       /*!< SCB 
 463:/home/arpit/studies/pes/Blinkenlights/CMSIS/core_cm0plus.h **** 
 464:/home/arpit/studies/pes/Blinkenlights/CMSIS/core_cm0plus.h **** #if (__VTOR_PRESENT == 1U)
 465:/home/arpit/studies/pes/Blinkenlights/CMSIS/core_cm0plus.h **** /* SCB Interrupt Control State Register Definitions */
 466:/home/arpit/studies/pes/Blinkenlights/CMSIS/core_cm0plus.h **** #define SCB_VTOR_TBLOFF_Pos                 8U                                            /*!< SCB 
 467:/home/arpit/studies/pes/Blinkenlights/CMSIS/core_cm0plus.h **** #define SCB_VTOR_TBLOFF_Msk                (0xFFFFFFUL << SCB_VTOR_TBLOFF_Pos)            /*!< SCB 
 468:/home/arpit/studies/pes/Blinkenlights/CMSIS/core_cm0plus.h **** #endif
 469:/home/arpit/studies/pes/Blinkenlights/CMSIS/core_cm0plus.h **** 
 470:/home/arpit/studies/pes/Blinkenlights/CMSIS/core_cm0plus.h **** /* SCB Application Interrupt and Reset Control Register Definitions */
 471:/home/arpit/studies/pes/Blinkenlights/CMSIS/core_cm0plus.h **** #define SCB_AIRCR_VECTKEY_Pos              16U                                            /*!< SCB 
 472:/home/arpit/studies/pes/Blinkenlights/CMSIS/core_cm0plus.h **** #define SCB_AIRCR_VECTKEY_Msk              (0xFFFFUL << SCB_AIRCR_VECTKEY_Pos)            /*!< SCB 
 473:/home/arpit/studies/pes/Blinkenlights/CMSIS/core_cm0plus.h **** 
 474:/home/arpit/studies/pes/Blinkenlights/CMSIS/core_cm0plus.h **** #define SCB_AIRCR_VECTKEYSTAT_Pos          16U                                            /*!< SCB 
 475:/home/arpit/studies/pes/Blinkenlights/CMSIS/core_cm0plus.h **** #define SCB_AIRCR_VECTKEYSTAT_Msk          (0xFFFFUL << SCB_AIRCR_VECTKEYSTAT_Pos)        /*!< SCB 
 476:/home/arpit/studies/pes/Blinkenlights/CMSIS/core_cm0plus.h **** 
 477:/home/arpit/studies/pes/Blinkenlights/CMSIS/core_cm0plus.h **** #define SCB_AIRCR_ENDIANESS_Pos            15U                                            /*!< SCB 
 478:/home/arpit/studies/pes/Blinkenlights/CMSIS/core_cm0plus.h **** #define SCB_AIRCR_ENDIANESS_Msk            (1UL << SCB_AIRCR_ENDIANESS_Pos)               /*!< SCB 
 479:/home/arpit/studies/pes/Blinkenlights/CMSIS/core_cm0plus.h **** 
 480:/home/arpit/studies/pes/Blinkenlights/CMSIS/core_cm0plus.h **** #define SCB_AIRCR_SYSRESETREQ_Pos           2U                                            /*!< SCB 
 481:/home/arpit/studies/pes/Blinkenlights/CMSIS/core_cm0plus.h **** #define SCB_AIRCR_SYSRESETREQ_Msk          (1UL << SCB_AIRCR_SYSRESETREQ_Pos)             /*!< SCB 
 482:/home/arpit/studies/pes/Blinkenlights/CMSIS/core_cm0plus.h **** 
 483:/home/arpit/studies/pes/Blinkenlights/CMSIS/core_cm0plus.h **** #define SCB_AIRCR_VECTCLRACTIVE_Pos         1U                                            /*!< SCB 
 484:/home/arpit/studies/pes/Blinkenlights/CMSIS/core_cm0plus.h **** #define SCB_AIRCR_VECTCLRACTIVE_Msk        (1UL << SCB_AIRCR_VECTCLRACTIVE_Pos)           /*!< SCB 
 485:/home/arpit/studies/pes/Blinkenlights/CMSIS/core_cm0plus.h **** 
 486:/home/arpit/studies/pes/Blinkenlights/CMSIS/core_cm0plus.h **** /* SCB System Control Register Definitions */
 487:/home/arpit/studies/pes/Blinkenlights/CMSIS/core_cm0plus.h **** #define SCB_SCR_SEVONPEND_Pos               4U                                            /*!< SCB 
 488:/home/arpit/studies/pes/Blinkenlights/CMSIS/core_cm0plus.h **** #define SCB_SCR_SEVONPEND_Msk              (1UL << SCB_SCR_SEVONPEND_Pos)                 /*!< SCB 
 489:/home/arpit/studies/pes/Blinkenlights/CMSIS/core_cm0plus.h **** 
 490:/home/arpit/studies/pes/Blinkenlights/CMSIS/core_cm0plus.h **** #define SCB_SCR_SLEEPDEEP_Pos               2U                                            /*!< SCB 
 491:/home/arpit/studies/pes/Blinkenlights/CMSIS/core_cm0plus.h **** #define SCB_SCR_SLEEPDEEP_Msk              (1UL << SCB_SCR_SLEEPDEEP_Pos)                 /*!< SCB 
 492:/home/arpit/studies/pes/Blinkenlights/CMSIS/core_cm0plus.h **** 
 493:/home/arpit/studies/pes/Blinkenlights/CMSIS/core_cm0plus.h **** #define SCB_SCR_SLEEPONEXIT_Pos             1U                                            /*!< SCB 
 494:/home/arpit/studies/pes/Blinkenlights/CMSIS/core_cm0plus.h **** #define SCB_SCR_SLEEPONEXIT_Msk            (1UL << SCB_SCR_SLEEPONEXIT_Pos)               /*!< SCB 
 495:/home/arpit/studies/pes/Blinkenlights/CMSIS/core_cm0plus.h **** 
 496:/home/arpit/studies/pes/Blinkenlights/CMSIS/core_cm0plus.h **** /* SCB Configuration Control Register Definitions */
 497:/home/arpit/studies/pes/Blinkenlights/CMSIS/core_cm0plus.h **** #define SCB_CCR_STKALIGN_Pos                9U                                            /*!< SCB 
 498:/home/arpit/studies/pes/Blinkenlights/CMSIS/core_cm0plus.h **** #define SCB_CCR_STKALIGN_Msk               (1UL << SCB_CCR_STKALIGN_Pos)                  /*!< SCB 
 499:/home/arpit/studies/pes/Blinkenlights/CMSIS/core_cm0plus.h **** 
 500:/home/arpit/studies/pes/Blinkenlights/CMSIS/core_cm0plus.h **** #define SCB_CCR_UNALIGN_TRP_Pos             3U                                            /*!< SCB 
 501:/home/arpit/studies/pes/Blinkenlights/CMSIS/core_cm0plus.h **** #define SCB_CCR_UNALIGN_TRP_Msk            (1UL << SCB_CCR_UNALIGN_TRP_Pos)               /*!< SCB 
 502:/home/arpit/studies/pes/Blinkenlights/CMSIS/core_cm0plus.h **** 
 503:/home/arpit/studies/pes/Blinkenlights/CMSIS/core_cm0plus.h **** /* SCB System Handler Control and State Register Definitions */
 504:/home/arpit/studies/pes/Blinkenlights/CMSIS/core_cm0plus.h **** #define SCB_SHCSR_SVCALLPENDED_Pos         15U                                            /*!< SCB 
 505:/home/arpit/studies/pes/Blinkenlights/CMSIS/core_cm0plus.h **** #define SCB_SHCSR_SVCALLPENDED_Msk         (1UL << SCB_SHCSR_SVCALLPENDED_Pos)            /*!< SCB 
 506:/home/arpit/studies/pes/Blinkenlights/CMSIS/core_cm0plus.h **** 
 507:/home/arpit/studies/pes/Blinkenlights/CMSIS/core_cm0plus.h **** /*@} end of group CMSIS_SCB */
 508:/home/arpit/studies/pes/Blinkenlights/CMSIS/core_cm0plus.h **** 
 509:/home/arpit/studies/pes/Blinkenlights/CMSIS/core_cm0plus.h **** 
 510:/home/arpit/studies/pes/Blinkenlights/CMSIS/core_cm0plus.h **** /**
 511:/home/arpit/studies/pes/Blinkenlights/CMSIS/core_cm0plus.h ****   \ingroup  CMSIS_core_register
 512:/home/arpit/studies/pes/Blinkenlights/CMSIS/core_cm0plus.h ****   \defgroup CMSIS_SysTick     System Tick Timer (SysTick)
 513:/home/arpit/studies/pes/Blinkenlights/CMSIS/core_cm0plus.h ****   \brief    Type definitions for the System Timer Registers.
 514:/home/arpit/studies/pes/Blinkenlights/CMSIS/core_cm0plus.h ****   @{
 515:/home/arpit/studies/pes/Blinkenlights/CMSIS/core_cm0plus.h ****  */
 516:/home/arpit/studies/pes/Blinkenlights/CMSIS/core_cm0plus.h **** 
 517:/home/arpit/studies/pes/Blinkenlights/CMSIS/core_cm0plus.h **** /**
 518:/home/arpit/studies/pes/Blinkenlights/CMSIS/core_cm0plus.h ****   \brief  Structure type to access the System Timer (SysTick).
 519:/home/arpit/studies/pes/Blinkenlights/CMSIS/core_cm0plus.h ****  */
 520:/home/arpit/studies/pes/Blinkenlights/CMSIS/core_cm0plus.h **** typedef struct
 521:/home/arpit/studies/pes/Blinkenlights/CMSIS/core_cm0plus.h **** {
 522:/home/arpit/studies/pes/Blinkenlights/CMSIS/core_cm0plus.h ****   __IOM uint32_t CTRL;                   /*!< Offset: 0x000 (R/W)  SysTick Control and Status Regis
 523:/home/arpit/studies/pes/Blinkenlights/CMSIS/core_cm0plus.h ****   __IOM uint32_t LOAD;                   /*!< Offset: 0x004 (R/W)  SysTick Reload Value Register */
 524:/home/arpit/studies/pes/Blinkenlights/CMSIS/core_cm0plus.h ****   __IOM uint32_t VAL;                    /*!< Offset: 0x008 (R/W)  SysTick Current Value Register *
 525:/home/arpit/studies/pes/Blinkenlights/CMSIS/core_cm0plus.h ****   __IM  uint32_t CALIB;                  /*!< Offset: 0x00C (R/ )  SysTick Calibration Register */
 526:/home/arpit/studies/pes/Blinkenlights/CMSIS/core_cm0plus.h **** } SysTick_Type;
 527:/home/arpit/studies/pes/Blinkenlights/CMSIS/core_cm0plus.h **** 
 528:/home/arpit/studies/pes/Blinkenlights/CMSIS/core_cm0plus.h **** /* SysTick Control / Status Register Definitions */
 529:/home/arpit/studies/pes/Blinkenlights/CMSIS/core_cm0plus.h **** #define SysTick_CTRL_COUNTFLAG_Pos         16U                                            /*!< SysT
 530:/home/arpit/studies/pes/Blinkenlights/CMSIS/core_cm0plus.h **** #define SysTick_CTRL_COUNTFLAG_Msk         (1UL << SysTick_CTRL_COUNTFLAG_Pos)            /*!< SysT
 531:/home/arpit/studies/pes/Blinkenlights/CMSIS/core_cm0plus.h **** 
 532:/home/arpit/studies/pes/Blinkenlights/CMSIS/core_cm0plus.h **** #define SysTick_CTRL_CLKSOURCE_Pos          2U                                            /*!< SysT
 533:/home/arpit/studies/pes/Blinkenlights/CMSIS/core_cm0plus.h **** #define SysTick_CTRL_CLKSOURCE_Msk         (1UL << SysTick_CTRL_CLKSOURCE_Pos)            /*!< SysT
 534:/home/arpit/studies/pes/Blinkenlights/CMSIS/core_cm0plus.h **** 
 535:/home/arpit/studies/pes/Blinkenlights/CMSIS/core_cm0plus.h **** #define SysTick_CTRL_TICKINT_Pos            1U                                            /*!< SysT
 536:/home/arpit/studies/pes/Blinkenlights/CMSIS/core_cm0plus.h **** #define SysTick_CTRL_TICKINT_Msk           (1UL << SysTick_CTRL_TICKINT_Pos)              /*!< SysT
 537:/home/arpit/studies/pes/Blinkenlights/CMSIS/core_cm0plus.h **** 
 538:/home/arpit/studies/pes/Blinkenlights/CMSIS/core_cm0plus.h **** #define SysTick_CTRL_ENABLE_Pos             0U                                            /*!< SysT
 539:/home/arpit/studies/pes/Blinkenlights/CMSIS/core_cm0plus.h **** #define SysTick_CTRL_ENABLE_Msk            (1UL /*<< SysTick_CTRL_ENABLE_Pos*/)           /*!< SysT
 540:/home/arpit/studies/pes/Blinkenlights/CMSIS/core_cm0plus.h **** 
 541:/home/arpit/studies/pes/Blinkenlights/CMSIS/core_cm0plus.h **** /* SysTick Reload Register Definitions */
 542:/home/arpit/studies/pes/Blinkenlights/CMSIS/core_cm0plus.h **** #define SysTick_LOAD_RELOAD_Pos             0U                                            /*!< SysT
 543:/home/arpit/studies/pes/Blinkenlights/CMSIS/core_cm0plus.h **** #define SysTick_LOAD_RELOAD_Msk            (0xFFFFFFUL /*<< SysTick_LOAD_RELOAD_Pos*/)    /*!< SysT
 544:/home/arpit/studies/pes/Blinkenlights/CMSIS/core_cm0plus.h **** 
 545:/home/arpit/studies/pes/Blinkenlights/CMSIS/core_cm0plus.h **** /* SysTick Current Register Definitions */
 546:/home/arpit/studies/pes/Blinkenlights/CMSIS/core_cm0plus.h **** #define SysTick_VAL_CURRENT_Pos             0U                                            /*!< SysT
 547:/home/arpit/studies/pes/Blinkenlights/CMSIS/core_cm0plus.h **** #define SysTick_VAL_CURRENT_Msk            (0xFFFFFFUL /*<< SysTick_VAL_CURRENT_Pos*/)    /*!< SysT
 548:/home/arpit/studies/pes/Blinkenlights/CMSIS/core_cm0plus.h **** 
 549:/home/arpit/studies/pes/Blinkenlights/CMSIS/core_cm0plus.h **** /* SysTick Calibration Register Definitions */
 550:/home/arpit/studies/pes/Blinkenlights/CMSIS/core_cm0plus.h **** #define SysTick_CALIB_NOREF_Pos            31U                                            /*!< SysT
 551:/home/arpit/studies/pes/Blinkenlights/CMSIS/core_cm0plus.h **** #define SysTick_CALIB_NOREF_Msk            (1UL << SysTick_CALIB_NOREF_Pos)               /*!< SysT
 552:/home/arpit/studies/pes/Blinkenlights/CMSIS/core_cm0plus.h **** 
 553:/home/arpit/studies/pes/Blinkenlights/CMSIS/core_cm0plus.h **** #define SysTick_CALIB_SKEW_Pos             30U                                            /*!< SysT
 554:/home/arpit/studies/pes/Blinkenlights/CMSIS/core_cm0plus.h **** #define SysTick_CALIB_SKEW_Msk             (1UL << SysTick_CALIB_SKEW_Pos)                /*!< SysT
 555:/home/arpit/studies/pes/Blinkenlights/CMSIS/core_cm0plus.h **** 
 556:/home/arpit/studies/pes/Blinkenlights/CMSIS/core_cm0plus.h **** #define SysTick_CALIB_TENMS_Pos             0U                                            /*!< SysT
 557:/home/arpit/studies/pes/Blinkenlights/CMSIS/core_cm0plus.h **** #define SysTick_CALIB_TENMS_Msk            (0xFFFFFFUL /*<< SysTick_CALIB_TENMS_Pos*/)    /*!< SysT
 558:/home/arpit/studies/pes/Blinkenlights/CMSIS/core_cm0plus.h **** 
 559:/home/arpit/studies/pes/Blinkenlights/CMSIS/core_cm0plus.h **** /*@} end of group CMSIS_SysTick */
 560:/home/arpit/studies/pes/Blinkenlights/CMSIS/core_cm0plus.h **** 
 561:/home/arpit/studies/pes/Blinkenlights/CMSIS/core_cm0plus.h **** #if (__MPU_PRESENT == 1U)
 562:/home/arpit/studies/pes/Blinkenlights/CMSIS/core_cm0plus.h **** /**
 563:/home/arpit/studies/pes/Blinkenlights/CMSIS/core_cm0plus.h ****   \ingroup  CMSIS_core_register
 564:/home/arpit/studies/pes/Blinkenlights/CMSIS/core_cm0plus.h ****   \defgroup CMSIS_MPU     Memory Protection Unit (MPU)
 565:/home/arpit/studies/pes/Blinkenlights/CMSIS/core_cm0plus.h ****   \brief    Type definitions for the Memory Protection Unit (MPU)
 566:/home/arpit/studies/pes/Blinkenlights/CMSIS/core_cm0plus.h ****   @{
 567:/home/arpit/studies/pes/Blinkenlights/CMSIS/core_cm0plus.h ****  */
 568:/home/arpit/studies/pes/Blinkenlights/CMSIS/core_cm0plus.h **** 
 569:/home/arpit/studies/pes/Blinkenlights/CMSIS/core_cm0plus.h **** /**
 570:/home/arpit/studies/pes/Blinkenlights/CMSIS/core_cm0plus.h ****   \brief  Structure type to access the Memory Protection Unit (MPU).
 571:/home/arpit/studies/pes/Blinkenlights/CMSIS/core_cm0plus.h ****  */
 572:/home/arpit/studies/pes/Blinkenlights/CMSIS/core_cm0plus.h **** typedef struct
 573:/home/arpit/studies/pes/Blinkenlights/CMSIS/core_cm0plus.h **** {
 574:/home/arpit/studies/pes/Blinkenlights/CMSIS/core_cm0plus.h ****   __IM  uint32_t TYPE;                   /*!< Offset: 0x000 (R/ )  MPU Type Register */
 575:/home/arpit/studies/pes/Blinkenlights/CMSIS/core_cm0plus.h ****   __IOM uint32_t CTRL;                   /*!< Offset: 0x004 (R/W)  MPU Control Register */
 576:/home/arpit/studies/pes/Blinkenlights/CMSIS/core_cm0plus.h ****   __IOM uint32_t RNR;                    /*!< Offset: 0x008 (R/W)  MPU Region RNRber Register */
 577:/home/arpit/studies/pes/Blinkenlights/CMSIS/core_cm0plus.h ****   __IOM uint32_t RBAR;                   /*!< Offset: 0x00C (R/W)  MPU Region Base Address Register
 578:/home/arpit/studies/pes/Blinkenlights/CMSIS/core_cm0plus.h ****   __IOM uint32_t RASR;                   /*!< Offset: 0x010 (R/W)  MPU Region Attribute and Size Re
 579:/home/arpit/studies/pes/Blinkenlights/CMSIS/core_cm0plus.h **** } MPU_Type;
 580:/home/arpit/studies/pes/Blinkenlights/CMSIS/core_cm0plus.h **** 
 581:/home/arpit/studies/pes/Blinkenlights/CMSIS/core_cm0plus.h **** /* MPU Type Register Definitions */
 582:/home/arpit/studies/pes/Blinkenlights/CMSIS/core_cm0plus.h **** #define MPU_TYPE_IREGION_Pos               16U                                            /*!< MPU 
 583:/home/arpit/studies/pes/Blinkenlights/CMSIS/core_cm0plus.h **** #define MPU_TYPE_IREGION_Msk               (0xFFUL << MPU_TYPE_IREGION_Pos)               /*!< MPU 
 584:/home/arpit/studies/pes/Blinkenlights/CMSIS/core_cm0plus.h **** 
 585:/home/arpit/studies/pes/Blinkenlights/CMSIS/core_cm0plus.h **** #define MPU_TYPE_DREGION_Pos                8U                                            /*!< MPU 
 586:/home/arpit/studies/pes/Blinkenlights/CMSIS/core_cm0plus.h **** #define MPU_TYPE_DREGION_Msk               (0xFFUL << MPU_TYPE_DREGION_Pos)               /*!< MPU 
 587:/home/arpit/studies/pes/Blinkenlights/CMSIS/core_cm0plus.h **** 
 588:/home/arpit/studies/pes/Blinkenlights/CMSIS/core_cm0plus.h **** #define MPU_TYPE_SEPARATE_Pos               0U                                            /*!< MPU 
 589:/home/arpit/studies/pes/Blinkenlights/CMSIS/core_cm0plus.h **** #define MPU_TYPE_SEPARATE_Msk              (1UL /*<< MPU_TYPE_SEPARATE_Pos*/)             /*!< MPU 
 590:/home/arpit/studies/pes/Blinkenlights/CMSIS/core_cm0plus.h **** 
 591:/home/arpit/studies/pes/Blinkenlights/CMSIS/core_cm0plus.h **** /* MPU Control Register Definitions */
 592:/home/arpit/studies/pes/Blinkenlights/CMSIS/core_cm0plus.h **** #define MPU_CTRL_PRIVDEFENA_Pos             2U                                            /*!< MPU 
 593:/home/arpit/studies/pes/Blinkenlights/CMSIS/core_cm0plus.h **** #define MPU_CTRL_PRIVDEFENA_Msk            (1UL << MPU_CTRL_PRIVDEFENA_Pos)               /*!< MPU 
 594:/home/arpit/studies/pes/Blinkenlights/CMSIS/core_cm0plus.h **** 
 595:/home/arpit/studies/pes/Blinkenlights/CMSIS/core_cm0plus.h **** #define MPU_CTRL_HFNMIENA_Pos               1U                                            /*!< MPU 
 596:/home/arpit/studies/pes/Blinkenlights/CMSIS/core_cm0plus.h **** #define MPU_CTRL_HFNMIENA_Msk              (1UL << MPU_CTRL_HFNMIENA_Pos)                 /*!< MPU 
 597:/home/arpit/studies/pes/Blinkenlights/CMSIS/core_cm0plus.h **** 
 598:/home/arpit/studies/pes/Blinkenlights/CMSIS/core_cm0plus.h **** #define MPU_CTRL_ENABLE_Pos                 0U                                            /*!< MPU 
 599:/home/arpit/studies/pes/Blinkenlights/CMSIS/core_cm0plus.h **** #define MPU_CTRL_ENABLE_Msk                (1UL /*<< MPU_CTRL_ENABLE_Pos*/)               /*!< MPU 
 600:/home/arpit/studies/pes/Blinkenlights/CMSIS/core_cm0plus.h **** 
 601:/home/arpit/studies/pes/Blinkenlights/CMSIS/core_cm0plus.h **** /* MPU Region Number Register Definitions */
 602:/home/arpit/studies/pes/Blinkenlights/CMSIS/core_cm0plus.h **** #define MPU_RNR_REGION_Pos                  0U                                            /*!< MPU 
 603:/home/arpit/studies/pes/Blinkenlights/CMSIS/core_cm0plus.h **** #define MPU_RNR_REGION_Msk                 (0xFFUL /*<< MPU_RNR_REGION_Pos*/)             /*!< MPU 
 604:/home/arpit/studies/pes/Blinkenlights/CMSIS/core_cm0plus.h **** 
 605:/home/arpit/studies/pes/Blinkenlights/CMSIS/core_cm0plus.h **** /* MPU Region Base Address Register Definitions */
 606:/home/arpit/studies/pes/Blinkenlights/CMSIS/core_cm0plus.h **** #define MPU_RBAR_ADDR_Pos                   8U                                            /*!< MPU 
 607:/home/arpit/studies/pes/Blinkenlights/CMSIS/core_cm0plus.h **** #define MPU_RBAR_ADDR_Msk                  (0xFFFFFFUL << MPU_RBAR_ADDR_Pos)              /*!< MPU 
 608:/home/arpit/studies/pes/Blinkenlights/CMSIS/core_cm0plus.h **** 
 609:/home/arpit/studies/pes/Blinkenlights/CMSIS/core_cm0plus.h **** #define MPU_RBAR_VALID_Pos                  4U                                            /*!< MPU 
 610:/home/arpit/studies/pes/Blinkenlights/CMSIS/core_cm0plus.h **** #define MPU_RBAR_VALID_Msk                 (1UL << MPU_RBAR_VALID_Pos)                    /*!< MPU 
 611:/home/arpit/studies/pes/Blinkenlights/CMSIS/core_cm0plus.h **** 
 612:/home/arpit/studies/pes/Blinkenlights/CMSIS/core_cm0plus.h **** #define MPU_RBAR_REGION_Pos                 0U                                            /*!< MPU 
 613:/home/arpit/studies/pes/Blinkenlights/CMSIS/core_cm0plus.h **** #define MPU_RBAR_REGION_Msk                (0xFUL /*<< MPU_RBAR_REGION_Pos*/)             /*!< MPU 
 614:/home/arpit/studies/pes/Blinkenlights/CMSIS/core_cm0plus.h **** 
 615:/home/arpit/studies/pes/Blinkenlights/CMSIS/core_cm0plus.h **** /* MPU Region Attribute and Size Register Definitions */
 616:/home/arpit/studies/pes/Blinkenlights/CMSIS/core_cm0plus.h **** #define MPU_RASR_ATTRS_Pos                 16U                                            /*!< MPU 
 617:/home/arpit/studies/pes/Blinkenlights/CMSIS/core_cm0plus.h **** #define MPU_RASR_ATTRS_Msk                 (0xFFFFUL << MPU_RASR_ATTRS_Pos)               /*!< MPU 
 618:/home/arpit/studies/pes/Blinkenlights/CMSIS/core_cm0plus.h **** 
 619:/home/arpit/studies/pes/Blinkenlights/CMSIS/core_cm0plus.h **** #define MPU_RASR_XN_Pos                    28U                                            /*!< MPU 
 620:/home/arpit/studies/pes/Blinkenlights/CMSIS/core_cm0plus.h **** #define MPU_RASR_XN_Msk                    (1UL << MPU_RASR_XN_Pos)                       /*!< MPU 
 621:/home/arpit/studies/pes/Blinkenlights/CMSIS/core_cm0plus.h **** 
 622:/home/arpit/studies/pes/Blinkenlights/CMSIS/core_cm0plus.h **** #define MPU_RASR_AP_Pos                    24U                                            /*!< MPU 
 623:/home/arpit/studies/pes/Blinkenlights/CMSIS/core_cm0plus.h **** #define MPU_RASR_AP_Msk                    (0x7UL << MPU_RASR_AP_Pos)                     /*!< MPU 
 624:/home/arpit/studies/pes/Blinkenlights/CMSIS/core_cm0plus.h **** 
 625:/home/arpit/studies/pes/Blinkenlights/CMSIS/core_cm0plus.h **** #define MPU_RASR_TEX_Pos                   19U                                            /*!< MPU 
 626:/home/arpit/studies/pes/Blinkenlights/CMSIS/core_cm0plus.h **** #define MPU_RASR_TEX_Msk                   (0x7UL << MPU_RASR_TEX_Pos)                    /*!< MPU 
 627:/home/arpit/studies/pes/Blinkenlights/CMSIS/core_cm0plus.h **** 
 628:/home/arpit/studies/pes/Blinkenlights/CMSIS/core_cm0plus.h **** #define MPU_RASR_S_Pos                     18U                                            /*!< MPU 
 629:/home/arpit/studies/pes/Blinkenlights/CMSIS/core_cm0plus.h **** #define MPU_RASR_S_Msk                     (1UL << MPU_RASR_S_Pos)                        /*!< MPU 
 630:/home/arpit/studies/pes/Blinkenlights/CMSIS/core_cm0plus.h **** 
 631:/home/arpit/studies/pes/Blinkenlights/CMSIS/core_cm0plus.h **** #define MPU_RASR_C_Pos                     17U                                            /*!< MPU 
 632:/home/arpit/studies/pes/Blinkenlights/CMSIS/core_cm0plus.h **** #define MPU_RASR_C_Msk                     (1UL << MPU_RASR_C_Pos)                        /*!< MPU 
 633:/home/arpit/studies/pes/Blinkenlights/CMSIS/core_cm0plus.h **** 
 634:/home/arpit/studies/pes/Blinkenlights/CMSIS/core_cm0plus.h **** #define MPU_RASR_B_Pos                     16U                                            /*!< MPU 
 635:/home/arpit/studies/pes/Blinkenlights/CMSIS/core_cm0plus.h **** #define MPU_RASR_B_Msk                     (1UL << MPU_RASR_B_Pos)                        /*!< MPU 
 636:/home/arpit/studies/pes/Blinkenlights/CMSIS/core_cm0plus.h **** 
 637:/home/arpit/studies/pes/Blinkenlights/CMSIS/core_cm0plus.h **** #define MPU_RASR_SRD_Pos                    8U                                            /*!< MPU 
 638:/home/arpit/studies/pes/Blinkenlights/CMSIS/core_cm0plus.h **** #define MPU_RASR_SRD_Msk                   (0xFFUL << MPU_RASR_SRD_Pos)                   /*!< MPU 
 639:/home/arpit/studies/pes/Blinkenlights/CMSIS/core_cm0plus.h **** 
 640:/home/arpit/studies/pes/Blinkenlights/CMSIS/core_cm0plus.h **** #define MPU_RASR_SIZE_Pos                   1U                                            /*!< MPU 
 641:/home/arpit/studies/pes/Blinkenlights/CMSIS/core_cm0plus.h **** #define MPU_RASR_SIZE_Msk                  (0x1FUL << MPU_RASR_SIZE_Pos)                  /*!< MPU 
 642:/home/arpit/studies/pes/Blinkenlights/CMSIS/core_cm0plus.h **** 
 643:/home/arpit/studies/pes/Blinkenlights/CMSIS/core_cm0plus.h **** #define MPU_RASR_ENABLE_Pos                 0U                                            /*!< MPU 
 644:/home/arpit/studies/pes/Blinkenlights/CMSIS/core_cm0plus.h **** #define MPU_RASR_ENABLE_Msk                (1UL /*<< MPU_RASR_ENABLE_Pos*/)               /*!< MPU 
 645:/home/arpit/studies/pes/Blinkenlights/CMSIS/core_cm0plus.h **** 
 646:/home/arpit/studies/pes/Blinkenlights/CMSIS/core_cm0plus.h **** /*@} end of group CMSIS_MPU */
 647:/home/arpit/studies/pes/Blinkenlights/CMSIS/core_cm0plus.h **** #endif
 648:/home/arpit/studies/pes/Blinkenlights/CMSIS/core_cm0plus.h **** 
 649:/home/arpit/studies/pes/Blinkenlights/CMSIS/core_cm0plus.h **** 
 650:/home/arpit/studies/pes/Blinkenlights/CMSIS/core_cm0plus.h **** /**
 651:/home/arpit/studies/pes/Blinkenlights/CMSIS/core_cm0plus.h ****   \ingroup  CMSIS_core_register
 652:/home/arpit/studies/pes/Blinkenlights/CMSIS/core_cm0plus.h ****   \defgroup CMSIS_CoreDebug       Core Debug Registers (CoreDebug)
 653:/home/arpit/studies/pes/Blinkenlights/CMSIS/core_cm0plus.h ****   \brief    Cortex-M0+ Core Debug Registers (DCB registers, SHCSR, and DFSR) are only accessible ov
 654:/home/arpit/studies/pes/Blinkenlights/CMSIS/core_cm0plus.h ****             Therefore they are not covered by the Cortex-M0+ header file.
 655:/home/arpit/studies/pes/Blinkenlights/CMSIS/core_cm0plus.h ****   @{
 656:/home/arpit/studies/pes/Blinkenlights/CMSIS/core_cm0plus.h ****  */
 657:/home/arpit/studies/pes/Blinkenlights/CMSIS/core_cm0plus.h **** /*@} end of group CMSIS_CoreDebug */
 658:/home/arpit/studies/pes/Blinkenlights/CMSIS/core_cm0plus.h **** 
 659:/home/arpit/studies/pes/Blinkenlights/CMSIS/core_cm0plus.h **** 
 660:/home/arpit/studies/pes/Blinkenlights/CMSIS/core_cm0plus.h **** /**
 661:/home/arpit/studies/pes/Blinkenlights/CMSIS/core_cm0plus.h ****   \ingroup    CMSIS_core_register
 662:/home/arpit/studies/pes/Blinkenlights/CMSIS/core_cm0plus.h ****   \defgroup   CMSIS_core_bitfield     Core register bit field macros
 663:/home/arpit/studies/pes/Blinkenlights/CMSIS/core_cm0plus.h ****   \brief      Macros for use with bit field definitions (xxx_Pos, xxx_Msk).
 664:/home/arpit/studies/pes/Blinkenlights/CMSIS/core_cm0plus.h ****   @{
 665:/home/arpit/studies/pes/Blinkenlights/CMSIS/core_cm0plus.h ****  */
 666:/home/arpit/studies/pes/Blinkenlights/CMSIS/core_cm0plus.h **** 
 667:/home/arpit/studies/pes/Blinkenlights/CMSIS/core_cm0plus.h **** /**
 668:/home/arpit/studies/pes/Blinkenlights/CMSIS/core_cm0plus.h ****   \brief   Mask and shift a bit field value for use in a register bit range.
 669:/home/arpit/studies/pes/Blinkenlights/CMSIS/core_cm0plus.h ****   \param[in] field  Name of the register bit field.
 670:/home/arpit/studies/pes/Blinkenlights/CMSIS/core_cm0plus.h ****   \param[in] value  Value of the bit field.
 671:/home/arpit/studies/pes/Blinkenlights/CMSIS/core_cm0plus.h ****   \return           Masked and shifted value.
 672:/home/arpit/studies/pes/Blinkenlights/CMSIS/core_cm0plus.h **** */
 673:/home/arpit/studies/pes/Blinkenlights/CMSIS/core_cm0plus.h **** #define _VAL2FLD(field, value)    ((value << field ## _Pos) & field ## _Msk)
 674:/home/arpit/studies/pes/Blinkenlights/CMSIS/core_cm0plus.h **** 
 675:/home/arpit/studies/pes/Blinkenlights/CMSIS/core_cm0plus.h **** /**
 676:/home/arpit/studies/pes/Blinkenlights/CMSIS/core_cm0plus.h ****   \brief     Mask and shift a register value to extract a bit filed value.
 677:/home/arpit/studies/pes/Blinkenlights/CMSIS/core_cm0plus.h ****   \param[in] field  Name of the register bit field.
 678:/home/arpit/studies/pes/Blinkenlights/CMSIS/core_cm0plus.h ****   \param[in] value  Value of register.
 679:/home/arpit/studies/pes/Blinkenlights/CMSIS/core_cm0plus.h ****   \return           Masked and shifted bit field value.
 680:/home/arpit/studies/pes/Blinkenlights/CMSIS/core_cm0plus.h **** */
 681:/home/arpit/studies/pes/Blinkenlights/CMSIS/core_cm0plus.h **** #define _FLD2VAL(field, value)    ((value & field ## _Msk) >> field ## _Pos)
 682:/home/arpit/studies/pes/Blinkenlights/CMSIS/core_cm0plus.h **** 
 683:/home/arpit/studies/pes/Blinkenlights/CMSIS/core_cm0plus.h **** /*@} end of group CMSIS_core_bitfield */
 684:/home/arpit/studies/pes/Blinkenlights/CMSIS/core_cm0plus.h **** 
 685:/home/arpit/studies/pes/Blinkenlights/CMSIS/core_cm0plus.h **** 
 686:/home/arpit/studies/pes/Blinkenlights/CMSIS/core_cm0plus.h **** /**
 687:/home/arpit/studies/pes/Blinkenlights/CMSIS/core_cm0plus.h ****   \ingroup    CMSIS_core_register
 688:/home/arpit/studies/pes/Blinkenlights/CMSIS/core_cm0plus.h ****   \defgroup   CMSIS_core_base     Core Definitions
 689:/home/arpit/studies/pes/Blinkenlights/CMSIS/core_cm0plus.h ****   \brief      Definitions for base addresses, unions, and structures.
 690:/home/arpit/studies/pes/Blinkenlights/CMSIS/core_cm0plus.h ****   @{
 691:/home/arpit/studies/pes/Blinkenlights/CMSIS/core_cm0plus.h ****  */
 692:/home/arpit/studies/pes/Blinkenlights/CMSIS/core_cm0plus.h **** 
 693:/home/arpit/studies/pes/Blinkenlights/CMSIS/core_cm0plus.h **** /* Memory mapping of Cortex-M0+ Hardware */
 694:/home/arpit/studies/pes/Blinkenlights/CMSIS/core_cm0plus.h **** #define SCS_BASE            (0xE000E000UL)                            /*!< System Control Space Bas
 695:/home/arpit/studies/pes/Blinkenlights/CMSIS/core_cm0plus.h **** #define SysTick_BASE        (SCS_BASE +  0x0010UL)                    /*!< SysTick Base Address */
 696:/home/arpit/studies/pes/Blinkenlights/CMSIS/core_cm0plus.h **** #define NVIC_BASE           (SCS_BASE +  0x0100UL)                    /*!< NVIC Base Address */
 697:/home/arpit/studies/pes/Blinkenlights/CMSIS/core_cm0plus.h **** #define SCB_BASE            (SCS_BASE +  0x0D00UL)                    /*!< System Control Block Bas
 698:/home/arpit/studies/pes/Blinkenlights/CMSIS/core_cm0plus.h **** 
 699:/home/arpit/studies/pes/Blinkenlights/CMSIS/core_cm0plus.h **** #define SCB                 ((SCB_Type       *)     SCB_BASE      )   /*!< SCB configuration struct
 700:/home/arpit/studies/pes/Blinkenlights/CMSIS/core_cm0plus.h **** #define SysTick             ((SysTick_Type   *)     SysTick_BASE  )   /*!< SysTick configuration st
 701:/home/arpit/studies/pes/Blinkenlights/CMSIS/core_cm0plus.h **** #define NVIC                ((NVIC_Type      *)     NVIC_BASE     )   /*!< NVIC configuration struc
 702:/home/arpit/studies/pes/Blinkenlights/CMSIS/core_cm0plus.h **** 
 703:/home/arpit/studies/pes/Blinkenlights/CMSIS/core_cm0plus.h **** #if (__MPU_PRESENT == 1U)
 704:/home/arpit/studies/pes/Blinkenlights/CMSIS/core_cm0plus.h ****   #define MPU_BASE          (SCS_BASE +  0x0D90UL)                    /*!< Memory Protection Unit *
 705:/home/arpit/studies/pes/Blinkenlights/CMSIS/core_cm0plus.h ****   #define MPU               ((MPU_Type       *)     MPU_BASE      )   /*!< Memory Protection Unit *
 706:/home/arpit/studies/pes/Blinkenlights/CMSIS/core_cm0plus.h **** #endif
 707:/home/arpit/studies/pes/Blinkenlights/CMSIS/core_cm0plus.h **** 
 708:/home/arpit/studies/pes/Blinkenlights/CMSIS/core_cm0plus.h **** /*@} */
 709:/home/arpit/studies/pes/Blinkenlights/CMSIS/core_cm0plus.h **** 
 710:/home/arpit/studies/pes/Blinkenlights/CMSIS/core_cm0plus.h **** 
 711:/home/arpit/studies/pes/Blinkenlights/CMSIS/core_cm0plus.h **** 
 712:/home/arpit/studies/pes/Blinkenlights/CMSIS/core_cm0plus.h **** /*******************************************************************************
 713:/home/arpit/studies/pes/Blinkenlights/CMSIS/core_cm0plus.h ****  *                Hardware Abstraction Layer
 714:/home/arpit/studies/pes/Blinkenlights/CMSIS/core_cm0plus.h ****   Core Function Interface contains:
 715:/home/arpit/studies/pes/Blinkenlights/CMSIS/core_cm0plus.h ****   - Core NVIC Functions
 716:/home/arpit/studies/pes/Blinkenlights/CMSIS/core_cm0plus.h ****   - Core SysTick Functions
 717:/home/arpit/studies/pes/Blinkenlights/CMSIS/core_cm0plus.h ****   - Core Register Access Functions
 718:/home/arpit/studies/pes/Blinkenlights/CMSIS/core_cm0plus.h ****  ******************************************************************************/
 719:/home/arpit/studies/pes/Blinkenlights/CMSIS/core_cm0plus.h **** /**
 720:/home/arpit/studies/pes/Blinkenlights/CMSIS/core_cm0plus.h ****   \defgroup CMSIS_Core_FunctionInterface Functions and Instructions Reference
 721:/home/arpit/studies/pes/Blinkenlights/CMSIS/core_cm0plus.h **** */
 722:/home/arpit/studies/pes/Blinkenlights/CMSIS/core_cm0plus.h **** 
 723:/home/arpit/studies/pes/Blinkenlights/CMSIS/core_cm0plus.h **** 
 724:/home/arpit/studies/pes/Blinkenlights/CMSIS/core_cm0plus.h **** 
 725:/home/arpit/studies/pes/Blinkenlights/CMSIS/core_cm0plus.h **** /* ##########################   NVIC functions  #################################### */
 726:/home/arpit/studies/pes/Blinkenlights/CMSIS/core_cm0plus.h **** /**
 727:/home/arpit/studies/pes/Blinkenlights/CMSIS/core_cm0plus.h ****   \ingroup  CMSIS_Core_FunctionInterface
 728:/home/arpit/studies/pes/Blinkenlights/CMSIS/core_cm0plus.h ****   \defgroup CMSIS_Core_NVICFunctions NVIC Functions
 729:/home/arpit/studies/pes/Blinkenlights/CMSIS/core_cm0plus.h ****   \brief    Functions that manage interrupts and exceptions via the NVIC.
 730:/home/arpit/studies/pes/Blinkenlights/CMSIS/core_cm0plus.h ****   @{
 731:/home/arpit/studies/pes/Blinkenlights/CMSIS/core_cm0plus.h ****  */
 732:/home/arpit/studies/pes/Blinkenlights/CMSIS/core_cm0plus.h **** 
 733:/home/arpit/studies/pes/Blinkenlights/CMSIS/core_cm0plus.h **** /* Interrupt Priorities are WORD accessible only under ARMv6M                   */
 734:/home/arpit/studies/pes/Blinkenlights/CMSIS/core_cm0plus.h **** /* The following MACROS handle generation of the register offset and byte masks */
 735:/home/arpit/studies/pes/Blinkenlights/CMSIS/core_cm0plus.h **** #define _BIT_SHIFT(IRQn)         (  ((((uint32_t)(int32_t)(IRQn))         )      &  0x03UL) * 8UL)
 736:/home/arpit/studies/pes/Blinkenlights/CMSIS/core_cm0plus.h **** #define _SHP_IDX(IRQn)           ( (((((uint32_t)(int32_t)(IRQn)) & 0x0FUL)-8UL) >>    2UL)      )
 737:/home/arpit/studies/pes/Blinkenlights/CMSIS/core_cm0plus.h **** #define _IP_IDX(IRQn)            (   (((uint32_t)(int32_t)(IRQn))                >>    2UL)      )
 738:/home/arpit/studies/pes/Blinkenlights/CMSIS/core_cm0plus.h **** 
 739:/home/arpit/studies/pes/Blinkenlights/CMSIS/core_cm0plus.h **** 
 740:/home/arpit/studies/pes/Blinkenlights/CMSIS/core_cm0plus.h **** /**
 741:/home/arpit/studies/pes/Blinkenlights/CMSIS/core_cm0plus.h ****   \brief   Enable External Interrupt
 742:/home/arpit/studies/pes/Blinkenlights/CMSIS/core_cm0plus.h ****   \details Enables a device-specific interrupt in the NVIC interrupt controller.
 743:/home/arpit/studies/pes/Blinkenlights/CMSIS/core_cm0plus.h ****   \param [in]      IRQn  External interrupt number. Value cannot be negative.
 744:/home/arpit/studies/pes/Blinkenlights/CMSIS/core_cm0plus.h ****  */
 745:/home/arpit/studies/pes/Blinkenlights/CMSIS/core_cm0plus.h **** __STATIC_INLINE void NVIC_EnableIRQ(IRQn_Type IRQn)
 746:/home/arpit/studies/pes/Blinkenlights/CMSIS/core_cm0plus.h **** {
  26              		.loc 1 746 1
  27              		.cfi_startproc
  28              		@ args = 0, pretend = 0, frame = 8
  29              		@ frame_needed = 1, uses_anonymous_args = 0
  30 0000 80B5     		push	{r7, lr}
  31              		.cfi_def_cfa_offset 8
  32              		.cfi_offset 7, -8
  33              		.cfi_offset 14, -4
  34 0002 82B0     		sub	sp, sp, #8
  35              		.cfi_def_cfa_offset 16
  36 0004 00AF     		add	r7, sp, #0
  37              		.cfi_def_cfa_register 7
  38 0006 0200     		movs	r2, r0
  39 0008 FB1D     		adds	r3, r7, #7
  40 000a 1A70     		strb	r2, [r3]
 747:/home/arpit/studies/pes/Blinkenlights/CMSIS/core_cm0plus.h ****   NVIC->ISER[0U] = (uint32_t)(1UL << (((uint32_t)(int32_t)IRQn) & 0x1FUL));
  41              		.loc 1 747 65
  42 000c FB1D     		adds	r3, r7, #7
  43 000e 1B78     		ldrb	r3, [r3]
  44 0010 1A00     		movs	r2, r3
  45 0012 1F23     		movs	r3, #31
  46 0014 1A40     		ands	r2, r3
  47              		.loc 1 747 7
  48 0016 044B     		ldr	r3, .L2
  49              		.loc 1 747 35
  50 0018 0121     		movs	r1, #1
  51 001a 9140     		lsls	r1, r1, r2
  52 001c 0A00     		movs	r2, r1
  53              		.loc 1 747 18
  54 001e 1A60     		str	r2, [r3]
 748:/home/arpit/studies/pes/Blinkenlights/CMSIS/core_cm0plus.h **** }
  55              		.loc 1 748 1
  56 0020 C046     		nop
  57 0022 BD46     		mov	sp, r7
  58 0024 02B0     		add	sp, sp, #8
  59              		@ sp needed
  60 0026 80BD     		pop	{r7, pc}
  61              	.L3:
  62              		.align	2
  63              	.L2:
  64 0028 00E100E0 		.word	-536813312
  65              		.cfi_endproc
  66              	.LFE25:
  68              		.section	.text.CLOCK_EnableClock,"ax",%progbits
  69              		.align	1
  70              		.syntax unified
  71              		.code	16
  72              		.thumb_func
  73              		.fpu softvfp
  75              	CLOCK_EnableClock:
  76              	.LFB34:
  77              		.file 2 "../drivers/fsl_clock.h"
   1:../drivers/fsl_clock.h **** /*
   2:../drivers/fsl_clock.h ****  * Copyright (c) 2015, Freescale Semiconductor, Inc.
   3:../drivers/fsl_clock.h ****  * Copyright (c) 2016 - 2017 , NXP
   4:../drivers/fsl_clock.h ****  * All rights reserved.
   5:../drivers/fsl_clock.h ****  *
   6:../drivers/fsl_clock.h ****  * Redistribution and use in source and binary forms, with or without modification,
   7:../drivers/fsl_clock.h ****  * are permitted provided that the following conditions are met:
   8:../drivers/fsl_clock.h ****  *
   9:../drivers/fsl_clock.h ****  * o Redistributions of source code must retain the above copyright notice, this list
  10:../drivers/fsl_clock.h ****  *   of conditions and the following disclaimer.
  11:../drivers/fsl_clock.h ****  *
  12:../drivers/fsl_clock.h ****  * o Redistributions in binary form must reproduce the above copyright notice, this
  13:../drivers/fsl_clock.h ****  *   list of conditions and the following disclaimer in the documentation and/or
  14:../drivers/fsl_clock.h ****  *   other materials provided with the distribution.
  15:../drivers/fsl_clock.h ****  *
  16:../drivers/fsl_clock.h ****  * o Neither the name of copyright holder nor the names of its
  17:../drivers/fsl_clock.h ****  *   contributors may be used to endorse or promote products derived from this
  18:../drivers/fsl_clock.h ****  *   software without specific prior written permission.
  19:../drivers/fsl_clock.h ****  *
  20:../drivers/fsl_clock.h ****  * THIS SOFTWARE IS PROVIDED BY THE COPYRIGHT HOLDERS AND CONTRIBUTORS "AS IS" AND
  21:../drivers/fsl_clock.h ****  * ANY EXPRESS OR IMPLIED WARRANTIES, INCLUDING, BUT NOT LIMITED TO, THE IMPLIED
  22:../drivers/fsl_clock.h ****  * WARRANTIES OF MERCHANTABILITY AND FITNESS FOR A PARTICULAR PURPOSE ARE
  23:../drivers/fsl_clock.h ****  * DISCLAIMED. IN NO EVENT SHALL THE COPYRIGHT HOLDER OR CONTRIBUTORS BE LIABLE FOR
  24:../drivers/fsl_clock.h ****  * ANY DIRECT, INDIRECT, INCIDENTAL, SPECIAL, EXEMPLARY, OR CONSEQUENTIAL DAMAGES
  25:../drivers/fsl_clock.h ****  * (INCLUDING, BUT NOT LIMITED TO, PROCUREMENT OF SUBSTITUTE GOODS OR SERVICES;
  26:../drivers/fsl_clock.h ****  * LOSS OF USE, DATA, OR PROFITS; OR BUSINESS INTERRUPTION) HOWEVER CAUSED AND ON
  27:../drivers/fsl_clock.h ****  * ANY THEORY OF LIABILITY, WHETHER IN CONTRACT, STRICT LIABILITY, OR TORT
  28:../drivers/fsl_clock.h ****  * (INCLUDING NEGLIGENCE OR OTHERWISE) ARISING IN ANY WAY OUT OF THE USE OF THIS
  29:../drivers/fsl_clock.h ****  * SOFTWARE, EVEN IF ADVISED OF THE POSSIBILITY OF SUCH DAMAGE.
  30:../drivers/fsl_clock.h ****  */
  31:../drivers/fsl_clock.h **** 
  32:../drivers/fsl_clock.h **** #ifndef _FSL_CLOCK_H_
  33:../drivers/fsl_clock.h **** #define _FSL_CLOCK_H_
  34:../drivers/fsl_clock.h **** 
  35:../drivers/fsl_clock.h **** #include "fsl_common.h"
  36:../drivers/fsl_clock.h **** 
  37:../drivers/fsl_clock.h **** /*! @addtogroup clock */
  38:../drivers/fsl_clock.h **** /*! @{ */
  39:../drivers/fsl_clock.h **** 
  40:../drivers/fsl_clock.h **** /*! @file */
  41:../drivers/fsl_clock.h **** 
  42:../drivers/fsl_clock.h **** /*******************************************************************************
  43:../drivers/fsl_clock.h ****  * Configurations
  44:../drivers/fsl_clock.h ****  ******************************************************************************/
  45:../drivers/fsl_clock.h **** 
  46:../drivers/fsl_clock.h **** /*! @brief Configures whether to check a parameter in a function.
  47:../drivers/fsl_clock.h ****  *
  48:../drivers/fsl_clock.h ****  * Some MCG settings must be changed with conditions, for example:
  49:../drivers/fsl_clock.h ****  *  1. MCGIRCLK settings, such as the source, divider, and the trim value should not change when
  50:../drivers/fsl_clock.h ****  *     MCGIRCLK is used as a system clock source.
  51:../drivers/fsl_clock.h ****  *  2. MCG_C7[OSCSEL] should not be changed  when the external reference clock is used
  52:../drivers/fsl_clock.h ****  *     as a system clock source. For example, in FBE/BLPE/PBE modes.
  53:../drivers/fsl_clock.h ****  *  3. The users should only switch between the supported clock modes.
  54:../drivers/fsl_clock.h ****  *
  55:../drivers/fsl_clock.h ****  * MCG functions check the parameter and MCG status before setting, if not allowed
  56:../drivers/fsl_clock.h ****  * to change, the functions return error. The parameter checking increases code size,
  57:../drivers/fsl_clock.h ****  * if code size is a critical requirement, change #MCG_CONFIG_CHECK_PARAM to 0 to
  58:../drivers/fsl_clock.h ****  * disable parameter checking.
  59:../drivers/fsl_clock.h ****  */
  60:../drivers/fsl_clock.h **** #ifndef MCG_CONFIG_CHECK_PARAM
  61:../drivers/fsl_clock.h **** #define MCG_CONFIG_CHECK_PARAM 0U
  62:../drivers/fsl_clock.h **** #endif
  63:../drivers/fsl_clock.h **** 
  64:../drivers/fsl_clock.h **** /*! @brief Configure whether driver controls clock
  65:../drivers/fsl_clock.h ****  *
  66:../drivers/fsl_clock.h ****  * When set to 0, peripheral drivers will enable clock in initialize function
  67:../drivers/fsl_clock.h ****  * and disable clock in de-initialize function. When set to 1, peripheral
  68:../drivers/fsl_clock.h ****  * driver will not control the clock, application could contol the clock out of
  69:../drivers/fsl_clock.h ****  * the driver.
  70:../drivers/fsl_clock.h ****  *
  71:../drivers/fsl_clock.h ****  * @note All drivers share this feature switcher. If it is set to 1, application
  72:../drivers/fsl_clock.h ****  * should handle clock enable and disable for all drivers.
  73:../drivers/fsl_clock.h ****  */
  74:../drivers/fsl_clock.h **** #if !(defined(FSL_SDK_DISABLE_DRIVER_CLOCK_CONTROL))
  75:../drivers/fsl_clock.h **** #define FSL_SDK_DISABLE_DRIVER_CLOCK_CONTROL 0
  76:../drivers/fsl_clock.h **** #endif
  77:../drivers/fsl_clock.h **** 
  78:../drivers/fsl_clock.h **** /*******************************************************************************
  79:../drivers/fsl_clock.h ****  * Definitions
  80:../drivers/fsl_clock.h ****  ******************************************************************************/
  81:../drivers/fsl_clock.h **** 
  82:../drivers/fsl_clock.h **** /*! @name Driver version */
  83:../drivers/fsl_clock.h **** /*@{*/
  84:../drivers/fsl_clock.h **** /*! @brief CLOCK driver version 2.2.1. */
  85:../drivers/fsl_clock.h **** #define FSL_CLOCK_DRIVER_VERSION (MAKE_VERSION(2, 2, 1))
  86:../drivers/fsl_clock.h **** /*@}*/
  87:../drivers/fsl_clock.h **** 
  88:../drivers/fsl_clock.h **** /*! @brief External XTAL0 (OSC0) clock frequency.
  89:../drivers/fsl_clock.h ****  *
  90:../drivers/fsl_clock.h ****  * The XTAL0/EXTAL0 (OSC0) clock frequency in Hz. When the clock is set up, use the
  91:../drivers/fsl_clock.h ****  * function CLOCK_SetXtal0Freq to set the value in the clock driver. For example,
  92:../drivers/fsl_clock.h ****  * if XTAL0 is 8 MHz:
  93:../drivers/fsl_clock.h ****  * @code
  94:../drivers/fsl_clock.h ****  * CLOCK_InitOsc0(...); // Set up the OSC0
  95:../drivers/fsl_clock.h ****  * CLOCK_SetXtal0Freq(80000000); // Set the XTAL0 value to the clock driver.
  96:../drivers/fsl_clock.h ****  * @endcode
  97:../drivers/fsl_clock.h ****  *
  98:../drivers/fsl_clock.h ****  * This is important for the multicore platforms where only one core needs to set up the
  99:../drivers/fsl_clock.h ****  * OSC0 using the CLOCK_InitOsc0. All other cores need to call the CLOCK_SetXtal0Freq
 100:../drivers/fsl_clock.h ****  * to get a valid clock frequency.
 101:../drivers/fsl_clock.h ****  */
 102:../drivers/fsl_clock.h **** extern uint32_t g_xtal0Freq;
 103:../drivers/fsl_clock.h **** 
 104:../drivers/fsl_clock.h **** /*! @brief External XTAL32/EXTAL32/RTC_CLKIN clock frequency.
 105:../drivers/fsl_clock.h ****  *
 106:../drivers/fsl_clock.h ****  * The XTAL32/EXTAL32/RTC_CLKIN clock frequency in Hz. When the clock is set up, use the
 107:../drivers/fsl_clock.h ****  * function CLOCK_SetXtal32Freq to set the value in the clock driver.
 108:../drivers/fsl_clock.h ****  *
 109:../drivers/fsl_clock.h ****  * This is important for the multicore platforms where only one core needs to set up
 110:../drivers/fsl_clock.h ****  * the clock. All other cores need to call the CLOCK_SetXtal32Freq
 111:../drivers/fsl_clock.h ****  * to get a valid clock frequency.
 112:../drivers/fsl_clock.h ****  */
 113:../drivers/fsl_clock.h **** extern uint32_t g_xtal32Freq;
 114:../drivers/fsl_clock.h **** 
 115:../drivers/fsl_clock.h **** #if (defined(OSC) && !(defined(OSC0)))
 116:../drivers/fsl_clock.h **** #define OSC0 OSC
 117:../drivers/fsl_clock.h **** #endif
 118:../drivers/fsl_clock.h **** 
 119:../drivers/fsl_clock.h **** /*! @brief Clock ip name array for DMAMUX. */
 120:../drivers/fsl_clock.h **** #define DMAMUX_CLOCKS  \
 121:../drivers/fsl_clock.h ****     {                  \
 122:../drivers/fsl_clock.h ****         kCLOCK_Dmamux0 \
 123:../drivers/fsl_clock.h ****     }
 124:../drivers/fsl_clock.h **** 
 125:../drivers/fsl_clock.h **** /*! @brief Clock ip name array for RTC. */
 126:../drivers/fsl_clock.h **** #define RTC_CLOCKS  \
 127:../drivers/fsl_clock.h ****     {               \
 128:../drivers/fsl_clock.h ****         kCLOCK_Rtc0 \
 129:../drivers/fsl_clock.h ****     }
 130:../drivers/fsl_clock.h **** 
 131:../drivers/fsl_clock.h **** /*! @brief Clock ip name array for SPI. */
 132:../drivers/fsl_clock.h **** #define SPI_CLOCKS               \
 133:../drivers/fsl_clock.h ****     {                            \
 134:../drivers/fsl_clock.h ****         kCLOCK_Spi0, kCLOCK_Spi1 \
 135:../drivers/fsl_clock.h ****     }
 136:../drivers/fsl_clock.h **** 
 137:../drivers/fsl_clock.h **** /*! @brief Clock ip name array for PIT. */
 138:../drivers/fsl_clock.h **** #define PIT_CLOCKS  \
 139:../drivers/fsl_clock.h ****     {               \
 140:../drivers/fsl_clock.h ****         kCLOCK_Pit0 \
 141:../drivers/fsl_clock.h ****     }
 142:../drivers/fsl_clock.h **** 
 143:../drivers/fsl_clock.h **** /*! @brief Clock ip name array for PORT. */
 144:../drivers/fsl_clock.h **** #define PORT_CLOCKS                                                          \
 145:../drivers/fsl_clock.h ****     {                                                                        \
 146:../drivers/fsl_clock.h ****         kCLOCK_PortA, kCLOCK_PortB, kCLOCK_PortC, kCLOCK_PortD, kCLOCK_PortE \
 147:../drivers/fsl_clock.h ****     }
 148:../drivers/fsl_clock.h **** 
 149:../drivers/fsl_clock.h **** /*! @brief Clock ip name array for TSI. */
 150:../drivers/fsl_clock.h **** #define TSI_CLOCKS  \
 151:../drivers/fsl_clock.h ****     {               \
 152:../drivers/fsl_clock.h ****         kCLOCK_Tsi0 \
 153:../drivers/fsl_clock.h ****     }
 154:../drivers/fsl_clock.h **** 
 155:../drivers/fsl_clock.h **** /*! @brief Clock ip name array for DAC. */
 156:../drivers/fsl_clock.h **** #define DAC_CLOCKS  \
 157:../drivers/fsl_clock.h ****     {               \
 158:../drivers/fsl_clock.h ****         kCLOCK_Dac0 \
 159:../drivers/fsl_clock.h ****     }
 160:../drivers/fsl_clock.h **** 
 161:../drivers/fsl_clock.h **** /*! @brief Clock ip name array for LPTMR. */
 162:../drivers/fsl_clock.h **** #define LPTMR_CLOCKS  \
 163:../drivers/fsl_clock.h ****     {                 \
 164:../drivers/fsl_clock.h ****         kCLOCK_Lptmr0 \
 165:../drivers/fsl_clock.h ****     }
 166:../drivers/fsl_clock.h **** 
 167:../drivers/fsl_clock.h **** /*! @brief Clock ip name array for ADC16. */
 168:../drivers/fsl_clock.h **** #define ADC16_CLOCKS \
 169:../drivers/fsl_clock.h ****     {                \
 170:../drivers/fsl_clock.h ****         kCLOCK_Adc0  \
 171:../drivers/fsl_clock.h ****     }
 172:../drivers/fsl_clock.h **** 
 173:../drivers/fsl_clock.h **** /*! @brief Clock ip name array for DMA. */
 174:../drivers/fsl_clock.h **** #define DMA_CLOCKS  \
 175:../drivers/fsl_clock.h ****     {               \
 176:../drivers/fsl_clock.h ****         kCLOCK_Dma0 \
 177:../drivers/fsl_clock.h ****     }
 178:../drivers/fsl_clock.h **** 
 179:../drivers/fsl_clock.h **** /*! @brief Clock ip name array for LPSCI/UART0. */
 180:../drivers/fsl_clock.h **** #define UART0_CLOCKS \
 181:../drivers/fsl_clock.h ****     {                \
 182:../drivers/fsl_clock.h ****         kCLOCK_Uart0 \
 183:../drivers/fsl_clock.h ****     }
 184:../drivers/fsl_clock.h **** 
 185:../drivers/fsl_clock.h **** /*! @brief Clock ip name array for UART. */
 186:../drivers/fsl_clock.h **** #define UART_CLOCKS                                  \
 187:../drivers/fsl_clock.h ****     {                                                \
 188:../drivers/fsl_clock.h ****         kCLOCK_IpInvalid, kCLOCK_Uart1, kCLOCK_Uart2 \
 189:../drivers/fsl_clock.h ****     }
 190:../drivers/fsl_clock.h **** 
 191:../drivers/fsl_clock.h **** /*! @brief Clock ip name array for TPM. */
 192:../drivers/fsl_clock.h **** #define TPM_CLOCKS                            \
 193:../drivers/fsl_clock.h ****     {                                         \
 194:../drivers/fsl_clock.h ****         kCLOCK_Tpm0, kCLOCK_Tpm1, kCLOCK_Tpm2 \
 195:../drivers/fsl_clock.h ****     }
 196:../drivers/fsl_clock.h **** 
 197:../drivers/fsl_clock.h **** /*! @brief Clock ip name array for I2C. */
 198:../drivers/fsl_clock.h **** #define I2C_CLOCKS               \
 199:../drivers/fsl_clock.h ****     {                            \
 200:../drivers/fsl_clock.h ****         kCLOCK_I2c0, kCLOCK_I2c1 \
 201:../drivers/fsl_clock.h ****     }
 202:../drivers/fsl_clock.h **** 
 203:../drivers/fsl_clock.h **** /*! @brief Clock ip name array for FTF. */
 204:../drivers/fsl_clock.h **** #define FTF_CLOCKS  \
 205:../drivers/fsl_clock.h ****     {               \
 206:../drivers/fsl_clock.h ****         kCLOCK_Ftf0 \
 207:../drivers/fsl_clock.h ****     }
 208:../drivers/fsl_clock.h **** 
 209:../drivers/fsl_clock.h **** /*! @brief Clock ip name array for CMP. */
 210:../drivers/fsl_clock.h **** #define CMP_CLOCKS  \
 211:../drivers/fsl_clock.h ****     {               \
 212:../drivers/fsl_clock.h ****         kCLOCK_Cmp0 \
 213:../drivers/fsl_clock.h ****     }
 214:../drivers/fsl_clock.h **** 
 215:../drivers/fsl_clock.h **** /*!
 216:../drivers/fsl_clock.h ****  * @brief LPO clock frequency.
 217:../drivers/fsl_clock.h ****  */
 218:../drivers/fsl_clock.h **** #define LPO_CLK_FREQ 1000U
 219:../drivers/fsl_clock.h **** 
 220:../drivers/fsl_clock.h **** /*! @brief Peripherals clock source definition. */
 221:../drivers/fsl_clock.h **** #define SYS_CLK kCLOCK_CoreSysClk
 222:../drivers/fsl_clock.h **** #define BUS_CLK kCLOCK_BusClk
 223:../drivers/fsl_clock.h **** 
 224:../drivers/fsl_clock.h **** #define I2C0_CLK_SRC BUS_CLK
 225:../drivers/fsl_clock.h **** #define I2C1_CLK_SRC BUS_CLK
 226:../drivers/fsl_clock.h **** #define SPI0_CLK_SRC BUS_CLK
 227:../drivers/fsl_clock.h **** #define SPI1_CLK_SRC SYS_CLK
 228:../drivers/fsl_clock.h **** #define UART1_CLK_SRC BUS_CLK
 229:../drivers/fsl_clock.h **** #define UART2_CLK_SRC BUS_CLK
 230:../drivers/fsl_clock.h **** 
 231:../drivers/fsl_clock.h **** /*! @brief Clock name used to get clock frequency. */
 232:../drivers/fsl_clock.h **** typedef enum _clock_name
 233:../drivers/fsl_clock.h **** {
 234:../drivers/fsl_clock.h **** 
 235:../drivers/fsl_clock.h ****     /* ----------------------------- System layer clock -------------------------------*/
 236:../drivers/fsl_clock.h ****     kCLOCK_CoreSysClk,   /*!< Core/system clock                                         */
 237:../drivers/fsl_clock.h ****     kCLOCK_PlatClk,      /*!< Platform clock                                            */
 238:../drivers/fsl_clock.h ****     kCLOCK_BusClk,       /*!< Bus clock                                                 */
 239:../drivers/fsl_clock.h ****     kCLOCK_FlexBusClk,   /*!< FlexBus clock                                             */
 240:../drivers/fsl_clock.h ****     kCLOCK_FlashClk,     /*!< Flash clock                                               */
 241:../drivers/fsl_clock.h ****     kCLOCK_PllFllSelClk, /*!< The clock after SIM[PLLFLLSEL].                           */
 242:../drivers/fsl_clock.h **** 
 243:../drivers/fsl_clock.h ****     /* ---------------------------------- OSC clock -----------------------------------*/
 244:../drivers/fsl_clock.h ****     kCLOCK_Er32kClk,  /*!< External reference 32K clock (ERCLK32K)                   */
 245:../drivers/fsl_clock.h ****     kCLOCK_Osc0ErClk, /*!< OSC0 external reference clock (OSC0ERCLK)                 */
 246:../drivers/fsl_clock.h **** 
 247:../drivers/fsl_clock.h ****     /* ----------------------------- MCG and MCG-Lite clock ---------------------------*/
 248:../drivers/fsl_clock.h ****     kCLOCK_McgFixedFreqClk,   /*!< MCG fixed frequency clock (MCGFFCLK)                      */
 249:../drivers/fsl_clock.h ****     kCLOCK_McgInternalRefClk, /*!< MCG internal reference clock (MCGIRCLK)                   */
 250:../drivers/fsl_clock.h ****     kCLOCK_McgFllClk,         /*!< MCGFLLCLK                                                 */
 251:../drivers/fsl_clock.h ****     kCLOCK_McgPll0Clk,        /*!< MCGPLL0CLK                                                */
 252:../drivers/fsl_clock.h ****     kCLOCK_McgExtPllClk,      /*!< EXT_PLLCLK                                                */
 253:../drivers/fsl_clock.h **** 
 254:../drivers/fsl_clock.h ****     /* --------------------------------- Other clock ----------------------------------*/
 255:../drivers/fsl_clock.h ****     kCLOCK_LpoClk, /*!< LPO clock                                                 */
 256:../drivers/fsl_clock.h **** 
 257:../drivers/fsl_clock.h **** } clock_name_t;
 258:../drivers/fsl_clock.h **** 
 259:../drivers/fsl_clock.h **** /*! @brief USB clock source definition. */
 260:../drivers/fsl_clock.h **** typedef enum _clock_usb_src
 261:../drivers/fsl_clock.h **** {
 262:../drivers/fsl_clock.h ****     kCLOCK_UsbSrcPll0 = SIM_SOPT2_USBSRC(1U) | SIM_SOPT2_PLLFLLSEL(1U), /*!< Use PLL0.      */
 263:../drivers/fsl_clock.h ****     kCLOCK_UsbSrcExt = SIM_SOPT2_USBSRC(0U)                             /*!< Use USB_CLKIN. */
 264:../drivers/fsl_clock.h **** } clock_usb_src_t;
 265:../drivers/fsl_clock.h **** 
 266:../drivers/fsl_clock.h **** /*------------------------------------------------------------------------------
 267:../drivers/fsl_clock.h **** 
 268:../drivers/fsl_clock.h ****  clock_gate_t definition:
 269:../drivers/fsl_clock.h **** 
 270:../drivers/fsl_clock.h ****  31                              16                              0
 271:../drivers/fsl_clock.h ****  -----------------------------------------------------------------
 272:../drivers/fsl_clock.h ****  | SIM_SCGC register offset       |   control bit offset in SCGC |
 273:../drivers/fsl_clock.h ****  -----------------------------------------------------------------
 274:../drivers/fsl_clock.h **** 
 275:../drivers/fsl_clock.h ****  For example, the SDHC clock gate is controlled by SIM_SCGC3[17], the
 276:../drivers/fsl_clock.h ****  SIM_SCGC3 offset in SIM is 0x1030, then kCLOCK_GateSdhc0 is defined as
 277:../drivers/fsl_clock.h **** 
 278:../drivers/fsl_clock.h ****               kCLOCK_GateSdhc0 = (0x1030 << 16) | 17;
 279:../drivers/fsl_clock.h **** 
 280:../drivers/fsl_clock.h **** ------------------------------------------------------------------------------*/
 281:../drivers/fsl_clock.h **** 
 282:../drivers/fsl_clock.h **** #define CLK_GATE_REG_OFFSET_SHIFT 16U
 283:../drivers/fsl_clock.h **** #define CLK_GATE_REG_OFFSET_MASK 0xFFFF0000U
 284:../drivers/fsl_clock.h **** #define CLK_GATE_BIT_SHIFT_SHIFT 0U
 285:../drivers/fsl_clock.h **** #define CLK_GATE_BIT_SHIFT_MASK 0x0000FFFFU
 286:../drivers/fsl_clock.h **** 
 287:../drivers/fsl_clock.h **** #define CLK_GATE_DEFINE(reg_offset, bit_shift)                                  \
 288:../drivers/fsl_clock.h ****     ((((reg_offset) << CLK_GATE_REG_OFFSET_SHIFT) & CLK_GATE_REG_OFFSET_MASK) | \
 289:../drivers/fsl_clock.h ****      (((bit_shift) << CLK_GATE_BIT_SHIFT_SHIFT) & CLK_GATE_BIT_SHIFT_MASK))
 290:../drivers/fsl_clock.h **** 
 291:../drivers/fsl_clock.h **** #define CLK_GATE_ABSTRACT_REG_OFFSET(x) (((x)&CLK_GATE_REG_OFFSET_MASK) >> CLK_GATE_REG_OFFSET_SHIF
 292:../drivers/fsl_clock.h **** #define CLK_GATE_ABSTRACT_BITS_SHIFT(x) (((x)&CLK_GATE_BIT_SHIFT_MASK) >> CLK_GATE_BIT_SHIFT_SHIFT)
 293:../drivers/fsl_clock.h **** 
 294:../drivers/fsl_clock.h **** /*! @brief Clock gate name used for CLOCK_EnableClock/CLOCK_DisableClock. */
 295:../drivers/fsl_clock.h **** typedef enum _clock_ip_name
 296:../drivers/fsl_clock.h **** {
 297:../drivers/fsl_clock.h ****     kCLOCK_IpInvalid = 0U,
 298:../drivers/fsl_clock.h ****     kCLOCK_I2c0 = CLK_GATE_DEFINE(0x1034U, 6U),
 299:../drivers/fsl_clock.h ****     kCLOCK_I2c1 = CLK_GATE_DEFINE(0x1034U, 7U),
 300:../drivers/fsl_clock.h ****     kCLOCK_Uart0 = CLK_GATE_DEFINE(0x1034U, 10U),
 301:../drivers/fsl_clock.h ****     kCLOCK_Uart1 = CLK_GATE_DEFINE(0x1034U, 11U),
 302:../drivers/fsl_clock.h ****     kCLOCK_Uart2 = CLK_GATE_DEFINE(0x1034U, 12U),
 303:../drivers/fsl_clock.h ****     kCLOCK_Usbfs0 = CLK_GATE_DEFINE(0x1034U, 18U),
 304:../drivers/fsl_clock.h ****     kCLOCK_Cmp0 = CLK_GATE_DEFINE(0x1034U, 19U),
 305:../drivers/fsl_clock.h ****     kCLOCK_Spi0 = CLK_GATE_DEFINE(0x1034U, 22U),
 306:../drivers/fsl_clock.h ****     kCLOCK_Spi1 = CLK_GATE_DEFINE(0x1034U, 23U),
 307:../drivers/fsl_clock.h **** 
 308:../drivers/fsl_clock.h ****     kCLOCK_Lptmr0 = CLK_GATE_DEFINE(0x1038U, 0U),
 309:../drivers/fsl_clock.h ****     kCLOCK_Tsi0 = CLK_GATE_DEFINE(0x1038U, 5U),
 310:../drivers/fsl_clock.h ****     kCLOCK_PortA = CLK_GATE_DEFINE(0x1038U, 9U),
 311:../drivers/fsl_clock.h ****     kCLOCK_PortB = CLK_GATE_DEFINE(0x1038U, 10U),
 312:../drivers/fsl_clock.h ****     kCLOCK_PortC = CLK_GATE_DEFINE(0x1038U, 11U),
 313:../drivers/fsl_clock.h ****     kCLOCK_PortD = CLK_GATE_DEFINE(0x1038U, 12U),
 314:../drivers/fsl_clock.h ****     kCLOCK_PortE = CLK_GATE_DEFINE(0x1038U, 13U),
 315:../drivers/fsl_clock.h **** 
 316:../drivers/fsl_clock.h ****     kCLOCK_Ftf0 = CLK_GATE_DEFINE(0x103CU, 0U),
 317:../drivers/fsl_clock.h ****     kCLOCK_Dmamux0 = CLK_GATE_DEFINE(0x103CU, 1U),
 318:../drivers/fsl_clock.h ****     kCLOCK_Pit0 = CLK_GATE_DEFINE(0x103CU, 23U),
 319:../drivers/fsl_clock.h ****     kCLOCK_Tpm0 = CLK_GATE_DEFINE(0x103CU, 24U),
 320:../drivers/fsl_clock.h ****     kCLOCK_Tpm1 = CLK_GATE_DEFINE(0x103CU, 25U),
 321:../drivers/fsl_clock.h ****     kCLOCK_Tpm2 = CLK_GATE_DEFINE(0x103CU, 26U),
 322:../drivers/fsl_clock.h ****     kCLOCK_Adc0 = CLK_GATE_DEFINE(0x103CU, 27U),
 323:../drivers/fsl_clock.h ****     kCLOCK_Rtc0 = CLK_GATE_DEFINE(0x103CU, 29U),
 324:../drivers/fsl_clock.h ****     kCLOCK_Dac0 = CLK_GATE_DEFINE(0x103CU, 31U),
 325:../drivers/fsl_clock.h **** 
 326:../drivers/fsl_clock.h ****     kCLOCK_Dma0 = CLK_GATE_DEFINE(0x1040U, 8U),
 327:../drivers/fsl_clock.h **** } clock_ip_name_t;
 328:../drivers/fsl_clock.h **** 
 329:../drivers/fsl_clock.h **** /*!@brief SIM configuration structure for clock setting. */
 330:../drivers/fsl_clock.h **** typedef struct _sim_clock_config
 331:../drivers/fsl_clock.h **** {
 332:../drivers/fsl_clock.h ****     uint8_t pllFllSel;
 333:../drivers/fsl_clock.h ****     uint8_t er32kSrc; /*!< ERCLK32K source selection.   */
 334:../drivers/fsl_clock.h ****     uint32_t clkdiv1; /*!< SIM_CLKDIV1.                 */
 335:../drivers/fsl_clock.h **** } sim_clock_config_t;
 336:../drivers/fsl_clock.h **** 
 337:../drivers/fsl_clock.h **** /*! @brief OSC work mode. */
 338:../drivers/fsl_clock.h **** typedef enum _osc_mode
 339:../drivers/fsl_clock.h **** {
 340:../drivers/fsl_clock.h ****     kOSC_ModeExt = 0U, /*!< Use an external clock.   */
 341:../drivers/fsl_clock.h **** #if (defined(MCG_C2_EREFS_MASK) && !(defined(MCG_C2_EREFS0_MASK)))
 342:../drivers/fsl_clock.h ****     kOSC_ModeOscLowPower = MCG_C2_EREFS_MASK, /*!< Oscillator low power. */
 343:../drivers/fsl_clock.h **** #else
 344:../drivers/fsl_clock.h ****     kOSC_ModeOscLowPower = MCG_C2_EREFS0_MASK, /*!< Oscillator low power. */
 345:../drivers/fsl_clock.h **** #endif
 346:../drivers/fsl_clock.h ****     kOSC_ModeOscHighGain = 0U
 347:../drivers/fsl_clock.h **** #if (defined(MCG_C2_EREFS_MASK) && !(defined(MCG_C2_EREFS0_MASK)))
 348:../drivers/fsl_clock.h ****                            |
 349:../drivers/fsl_clock.h ****                            MCG_C2_EREFS_MASK
 350:../drivers/fsl_clock.h **** #else
 351:../drivers/fsl_clock.h ****                            |
 352:../drivers/fsl_clock.h ****                            MCG_C2_EREFS0_MASK
 353:../drivers/fsl_clock.h **** #endif
 354:../drivers/fsl_clock.h **** #if (defined(MCG_C2_HGO_MASK) && !(defined(MCG_C2_HGO0_MASK)))
 355:../drivers/fsl_clock.h ****                            |
 356:../drivers/fsl_clock.h ****                            MCG_C2_HGO_MASK, /*!< Oscillator high gain. */
 357:../drivers/fsl_clock.h **** #else
 358:../drivers/fsl_clock.h ****                            |
 359:../drivers/fsl_clock.h ****                            MCG_C2_HGO0_MASK, /*!< Oscillator high gain. */
 360:../drivers/fsl_clock.h **** #endif
 361:../drivers/fsl_clock.h **** } osc_mode_t;
 362:../drivers/fsl_clock.h **** 
 363:../drivers/fsl_clock.h **** /*! @brief Oscillator capacitor load setting.*/
 364:../drivers/fsl_clock.h **** enum _osc_cap_load
 365:../drivers/fsl_clock.h **** {
 366:../drivers/fsl_clock.h ****     kOSC_Cap2P = OSC_CR_SC2P_MASK,  /*!< 2  pF capacitor load */
 367:../drivers/fsl_clock.h ****     kOSC_Cap4P = OSC_CR_SC4P_MASK,  /*!< 4  pF capacitor load */
 368:../drivers/fsl_clock.h ****     kOSC_Cap8P = OSC_CR_SC8P_MASK,  /*!< 8  pF capacitor load */
 369:../drivers/fsl_clock.h ****     kOSC_Cap16P = OSC_CR_SC16P_MASK /*!< 16 pF capacitor load */
 370:../drivers/fsl_clock.h **** };
 371:../drivers/fsl_clock.h **** 
 372:../drivers/fsl_clock.h **** /*! @brief OSCERCLK enable mode. */
 373:../drivers/fsl_clock.h **** enum _oscer_enable_mode
 374:../drivers/fsl_clock.h **** {
 375:../drivers/fsl_clock.h ****     kOSC_ErClkEnable = OSC_CR_ERCLKEN_MASK,       /*!< Enable.              */
 376:../drivers/fsl_clock.h ****     kOSC_ErClkEnableInStop = OSC_CR_EREFSTEN_MASK /*!< Enable in stop mode. */
 377:../drivers/fsl_clock.h **** };
 378:../drivers/fsl_clock.h **** 
 379:../drivers/fsl_clock.h **** /*! @brief OSC configuration for OSCERCLK. */
 380:../drivers/fsl_clock.h **** typedef struct _oscer_config
 381:../drivers/fsl_clock.h **** {
 382:../drivers/fsl_clock.h ****     uint8_t enableMode; /*!< OSCERCLK enable mode. OR'ed value of @ref _oscer_enable_mode. */
 383:../drivers/fsl_clock.h **** 
 384:../drivers/fsl_clock.h **** } oscer_config_t;
 385:../drivers/fsl_clock.h **** 
 386:../drivers/fsl_clock.h **** /*!
 387:../drivers/fsl_clock.h ****  * @brief OSC Initialization Configuration Structure
 388:../drivers/fsl_clock.h ****  *
 389:../drivers/fsl_clock.h ****  * Defines the configuration data structure to initialize the OSC.
 390:../drivers/fsl_clock.h ****  * When porting to a new board, set the following members
 391:../drivers/fsl_clock.h ****  * according to the board setting:
 392:../drivers/fsl_clock.h ****  * 1. freq: The external frequency.
 393:../drivers/fsl_clock.h ****  * 2. workMode: The OSC module mode.
 394:../drivers/fsl_clock.h ****  */
 395:../drivers/fsl_clock.h **** typedef struct _osc_config
 396:../drivers/fsl_clock.h **** {
 397:../drivers/fsl_clock.h ****     uint32_t freq;              /*!< External clock frequency.    */
 398:../drivers/fsl_clock.h ****     uint8_t capLoad;            /*!< Capacitor load setting.      */
 399:../drivers/fsl_clock.h ****     osc_mode_t workMode;        /*!< OSC work mode setting.       */
 400:../drivers/fsl_clock.h ****     oscer_config_t oscerConfig; /*!< Configuration for OSCERCLK.  */
 401:../drivers/fsl_clock.h **** } osc_config_t;
 402:../drivers/fsl_clock.h **** 
 403:../drivers/fsl_clock.h **** /*! @brief MCG FLL reference clock source select. */
 404:../drivers/fsl_clock.h **** typedef enum _mcg_fll_src
 405:../drivers/fsl_clock.h **** {
 406:../drivers/fsl_clock.h ****     kMCG_FllSrcExternal, /*!< External reference clock is selected          */
 407:../drivers/fsl_clock.h ****     kMCG_FllSrcInternal  /*!< The slow internal reference clock is selected */
 408:../drivers/fsl_clock.h **** } mcg_fll_src_t;
 409:../drivers/fsl_clock.h **** 
 410:../drivers/fsl_clock.h **** /*! @brief MCG internal reference clock select */
 411:../drivers/fsl_clock.h **** typedef enum _mcg_irc_mode
 412:../drivers/fsl_clock.h **** {
 413:../drivers/fsl_clock.h ****     kMCG_IrcSlow, /*!< Slow internal reference clock selected */
 414:../drivers/fsl_clock.h ****     kMCG_IrcFast  /*!< Fast internal reference clock selected */
 415:../drivers/fsl_clock.h **** } mcg_irc_mode_t;
 416:../drivers/fsl_clock.h **** 
 417:../drivers/fsl_clock.h **** /*! @brief MCG DCO Maximum Frequency with 32.768 kHz Reference */
 418:../drivers/fsl_clock.h **** typedef enum _mcg_dmx32
 419:../drivers/fsl_clock.h **** {
 420:../drivers/fsl_clock.h ****     kMCG_Dmx32Default, /*!< DCO has a default range of 25% */
 421:../drivers/fsl_clock.h ****     kMCG_Dmx32Fine     /*!< DCO is fine-tuned for maximum frequency with 32.768 kHz reference */
 422:../drivers/fsl_clock.h **** } mcg_dmx32_t;
 423:../drivers/fsl_clock.h **** 
 424:../drivers/fsl_clock.h **** /*! @brief MCG DCO range select */
 425:../drivers/fsl_clock.h **** typedef enum _mcg_drs
 426:../drivers/fsl_clock.h **** {
 427:../drivers/fsl_clock.h ****     kMCG_DrsLow,     /*!< Low frequency range       */
 428:../drivers/fsl_clock.h ****     kMCG_DrsMid,     /*!< Mid frequency range       */
 429:../drivers/fsl_clock.h ****     kMCG_DrsMidHigh, /*!< Mid-High frequency range  */
 430:../drivers/fsl_clock.h ****     kMCG_DrsHigh     /*!< High frequency range      */
 431:../drivers/fsl_clock.h **** } mcg_drs_t;
 432:../drivers/fsl_clock.h **** 
 433:../drivers/fsl_clock.h **** /*! @brief MCG PLL reference clock select */
 434:../drivers/fsl_clock.h **** typedef enum _mcg_pll_ref_src
 435:../drivers/fsl_clock.h **** {
 436:../drivers/fsl_clock.h ****     kMCG_PllRefOsc0, /*!< Selects OSC0 as PLL reference clock                 */
 437:../drivers/fsl_clock.h ****     kMCG_PllRefOsc1  /*!< Selects OSC1 as PLL reference clock                 */
 438:../drivers/fsl_clock.h **** } mcg_pll_ref_src_t;
 439:../drivers/fsl_clock.h **** 
 440:../drivers/fsl_clock.h **** /*! @brief MCGOUT clock source. */
 441:../drivers/fsl_clock.h **** typedef enum _mcg_clkout_src
 442:../drivers/fsl_clock.h **** {
 443:../drivers/fsl_clock.h ****     kMCG_ClkOutSrcOut,      /*!< Output of the FLL is selected (reset default)  */
 444:../drivers/fsl_clock.h ****     kMCG_ClkOutSrcInternal, /*!< Internal reference clock is selected           */
 445:../drivers/fsl_clock.h ****     kMCG_ClkOutSrcExternal, /*!< External reference clock is selected           */
 446:../drivers/fsl_clock.h **** } mcg_clkout_src_t;
 447:../drivers/fsl_clock.h **** 
 448:../drivers/fsl_clock.h **** /*! @brief MCG Automatic Trim Machine Select */
 449:../drivers/fsl_clock.h **** typedef enum _mcg_atm_select
 450:../drivers/fsl_clock.h **** {
 451:../drivers/fsl_clock.h ****     kMCG_AtmSel32k, /*!< 32 kHz Internal Reference Clock selected  */
 452:../drivers/fsl_clock.h ****     kMCG_AtmSel4m   /*!< 4 MHz Internal Reference Clock selected   */
 453:../drivers/fsl_clock.h **** } mcg_atm_select_t;
 454:../drivers/fsl_clock.h **** 
 455:../drivers/fsl_clock.h **** /*! @brief MCG OSC Clock Select */
 456:../drivers/fsl_clock.h **** typedef enum _mcg_oscsel
 457:../drivers/fsl_clock.h **** {
 458:../drivers/fsl_clock.h ****     kMCG_OscselOsc, /*!< Selects System Oscillator (OSCCLK) */
 459:../drivers/fsl_clock.h ****     kMCG_OscselRtc, /*!< Selects 32 kHz RTC Oscillator      */
 460:../drivers/fsl_clock.h **** } mcg_oscsel_t;
 461:../drivers/fsl_clock.h **** 
 462:../drivers/fsl_clock.h **** /*! @brief MCG PLLCS select */
 463:../drivers/fsl_clock.h **** typedef enum _mcg_pll_clk_select
 464:../drivers/fsl_clock.h **** {
 465:../drivers/fsl_clock.h ****     kMCG_PllClkSelPll0, /*!< PLL0 output clock is selected  */
 466:../drivers/fsl_clock.h ****     kMCG_PllClkSelPll1  /* PLL1 output clock is selected    */
 467:../drivers/fsl_clock.h **** } mcg_pll_clk_select_t;
 468:../drivers/fsl_clock.h **** 
 469:../drivers/fsl_clock.h **** /*! @brief MCG clock monitor mode. */
 470:../drivers/fsl_clock.h **** typedef enum _mcg_monitor_mode
 471:../drivers/fsl_clock.h **** {
 472:../drivers/fsl_clock.h ****     kMCG_MonitorNone, /*!< Clock monitor is disabled.         */
 473:../drivers/fsl_clock.h ****     kMCG_MonitorInt,  /*!< Trigger interrupt when clock lost. */
 474:../drivers/fsl_clock.h ****     kMCG_MonitorReset /*!< System reset when clock lost.      */
 475:../drivers/fsl_clock.h **** } mcg_monitor_mode_t;
 476:../drivers/fsl_clock.h **** 
 477:../drivers/fsl_clock.h **** /*! @brief MCG status. */
 478:../drivers/fsl_clock.h **** enum _mcg_status
 479:../drivers/fsl_clock.h **** {
 480:../drivers/fsl_clock.h ****     kStatus_MCG_ModeUnreachable = MAKE_STATUS(kStatusGroup_MCG, 0),       /*!< Can't switch to targ
 481:../drivers/fsl_clock.h ****     kStatus_MCG_ModeInvalid = MAKE_STATUS(kStatusGroup_MCG, 1),           /*!< Current mode invalid
 482:../drivers/fsl_clock.h ****                                                                                function. */
 483:../drivers/fsl_clock.h ****     kStatus_MCG_AtmBusClockInvalid = MAKE_STATUS(kStatusGroup_MCG, 2),    /*!< Invalid bus clock fo
 484:../drivers/fsl_clock.h ****     kStatus_MCG_AtmDesiredFreqInvalid = MAKE_STATUS(kStatusGroup_MCG, 3), /*!< Invalid desired freq
 485:../drivers/fsl_clock.h ****     kStatus_MCG_AtmIrcUsed = MAKE_STATUS(kStatusGroup_MCG, 4),            /*!< IRC is used when usi
 486:../drivers/fsl_clock.h ****     kStatus_MCG_AtmHardwareFail = MAKE_STATUS(kStatusGroup_MCG, 5),       /*!< Hardware fail occurs
 487:../drivers/fsl_clock.h ****     kStatus_MCG_SourceUsed = MAKE_STATUS(kStatusGroup_MCG, 6)             /*!< Can't change the clo
 488:../drivers/fsl_clock.h ****                                                                                it is in use. */
 489:../drivers/fsl_clock.h **** };
 490:../drivers/fsl_clock.h **** 
 491:../drivers/fsl_clock.h **** /*! @brief MCG status flags. */
 492:../drivers/fsl_clock.h **** enum _mcg_status_flags_t
 493:../drivers/fsl_clock.h **** {
 494:../drivers/fsl_clock.h ****     kMCG_Osc0LostFlag = (1U << 0U), /*!< OSC0 lost.         */
 495:../drivers/fsl_clock.h ****     kMCG_Osc0InitFlag = (1U << 1U), /*!< OSC0 crystal initialized. */
 496:../drivers/fsl_clock.h ****     kMCG_Pll0LostFlag = (1U << 5U), /*!< PLL0 lost.         */
 497:../drivers/fsl_clock.h ****     kMCG_Pll0LockFlag = (1U << 6U), /*!< PLL0 locked.       */
 498:../drivers/fsl_clock.h **** };
 499:../drivers/fsl_clock.h **** 
 500:../drivers/fsl_clock.h **** /*! @brief MCG internal reference clock (MCGIRCLK) enable mode definition. */
 501:../drivers/fsl_clock.h **** enum _mcg_irclk_enable_mode
 502:../drivers/fsl_clock.h **** {
 503:../drivers/fsl_clock.h ****     kMCG_IrclkEnable = MCG_C1_IRCLKEN_MASK,       /*!< MCGIRCLK enable.              */
 504:../drivers/fsl_clock.h ****     kMCG_IrclkEnableInStop = MCG_C1_IREFSTEN_MASK /*!< MCGIRCLK enable in stop mode. */
 505:../drivers/fsl_clock.h **** };
 506:../drivers/fsl_clock.h **** 
 507:../drivers/fsl_clock.h **** /*! @brief MCG PLL clock enable mode definition. */
 508:../drivers/fsl_clock.h **** enum _mcg_pll_enable_mode
 509:../drivers/fsl_clock.h **** {
 510:../drivers/fsl_clock.h ****     kMCG_PllEnableIndependent = MCG_C5_PLLCLKEN0_MASK, /*!< MCGPLLCLK enable independent of the
 511:../drivers/fsl_clock.h ****                                                            MCG clock mode. Generally, the PLL
 512:../drivers/fsl_clock.h ****                                                            is disabled in FLL modes
 513:../drivers/fsl_clock.h ****                                                            (FEI/FBI/FEE/FBE). Setting the PLL clock
 514:../drivers/fsl_clock.h ****                                                            enable independent, enables the
 515:../drivers/fsl_clock.h ****                                                            PLL in the FLL modes.          */
 516:../drivers/fsl_clock.h ****     kMCG_PllEnableInStop = MCG_C5_PLLSTEN0_MASK        /*!< MCGPLLCLK enable in STOP mode. */
 517:../drivers/fsl_clock.h **** };
 518:../drivers/fsl_clock.h **** 
 519:../drivers/fsl_clock.h **** /*! @brief MCG mode definitions */
 520:../drivers/fsl_clock.h **** typedef enum _mcg_mode
 521:../drivers/fsl_clock.h **** {
 522:../drivers/fsl_clock.h ****     kMCG_ModeFEI = 0U, /*!< FEI   - FLL Engaged Internal         */
 523:../drivers/fsl_clock.h ****     kMCG_ModeFBI,      /*!< FBI   - FLL Bypassed Internal        */
 524:../drivers/fsl_clock.h ****     kMCG_ModeBLPI,     /*!< BLPI  - Bypassed Low Power Internal  */
 525:../drivers/fsl_clock.h ****     kMCG_ModeFEE,      /*!< FEE   - FLL Engaged External         */
 526:../drivers/fsl_clock.h ****     kMCG_ModeFBE,      /*!< FBE   - FLL Bypassed External        */
 527:../drivers/fsl_clock.h ****     kMCG_ModeBLPE,     /*!< BLPE  - Bypassed Low Power External  */
 528:../drivers/fsl_clock.h ****     kMCG_ModePBE,      /*!< PBE   - PLL Bypassed External        */
 529:../drivers/fsl_clock.h ****     kMCG_ModePEE,      /*!< PEE   - PLL Engaged External         */
 530:../drivers/fsl_clock.h ****     kMCG_ModeError     /*!< Unknown mode                         */
 531:../drivers/fsl_clock.h **** } mcg_mode_t;
 532:../drivers/fsl_clock.h **** 
 533:../drivers/fsl_clock.h **** /*! @brief MCG PLL configuration. */
 534:../drivers/fsl_clock.h **** typedef struct _mcg_pll_config
 535:../drivers/fsl_clock.h **** {
 536:../drivers/fsl_clock.h ****     uint8_t enableMode; /*!< Enable mode. OR'ed value of @ref _mcg_pll_enable_mode. */
 537:../drivers/fsl_clock.h ****     uint8_t prdiv;      /*!< Reference divider PRDIV.    */
 538:../drivers/fsl_clock.h ****     uint8_t vdiv;       /*!< VCO divider VDIV.           */
 539:../drivers/fsl_clock.h **** } mcg_pll_config_t;
 540:../drivers/fsl_clock.h **** 
 541:../drivers/fsl_clock.h **** /*! @brief MCG mode change configuration structure
 542:../drivers/fsl_clock.h ****  *
 543:../drivers/fsl_clock.h ****  * When porting to a new board, set the following members
 544:../drivers/fsl_clock.h ****  * according to the board setting:
 545:../drivers/fsl_clock.h ****  * 1. frdiv: If the FLL uses the external reference clock, set this
 546:../drivers/fsl_clock.h ****  *    value to ensure that the external reference clock divided by frdiv is
 547:../drivers/fsl_clock.h ****  *    in the 31.25 kHz to 39.0625 kHz range.
 548:../drivers/fsl_clock.h ****  * 2. The PLL reference clock divider PRDIV: PLL reference clock frequency after
 549:../drivers/fsl_clock.h ****  *    PRDIV should be in the FSL_FEATURE_MCG_PLL_REF_MIN to
 550:../drivers/fsl_clock.h ****  *    FSL_FEATURE_MCG_PLL_REF_MAX range.
 551:../drivers/fsl_clock.h ****  */
 552:../drivers/fsl_clock.h **** typedef struct _mcg_config
 553:../drivers/fsl_clock.h **** {
 554:../drivers/fsl_clock.h ****     mcg_mode_t mcgMode; /*!< MCG mode.                   */
 555:../drivers/fsl_clock.h **** 
 556:../drivers/fsl_clock.h ****     /* ----------------------- MCGIRCCLK settings ------------------------ */
 557:../drivers/fsl_clock.h ****     uint8_t irclkEnableMode; /*!< MCGIRCLK enable mode.       */
 558:../drivers/fsl_clock.h ****     mcg_irc_mode_t ircs;     /*!< Source, MCG_C2[IRCS].       */
 559:../drivers/fsl_clock.h ****     uint8_t fcrdiv;          /*!< Divider, MCG_SC[FCRDIV].    */
 560:../drivers/fsl_clock.h **** 
 561:../drivers/fsl_clock.h ****     /* ------------------------ MCG FLL settings ------------------------- */
 562:../drivers/fsl_clock.h ****     uint8_t frdiv;     /*!< Divider MCG_C1[FRDIV].      */
 563:../drivers/fsl_clock.h ****     mcg_drs_t drs;     /*!< DCO range MCG_C4[DRST_DRS]. */
 564:../drivers/fsl_clock.h ****     mcg_dmx32_t dmx32; /*!< MCG_C4[DMX32].              */
 565:../drivers/fsl_clock.h **** 
 566:../drivers/fsl_clock.h ****     /* ------------------------ MCG PLL settings ------------------------- */
 567:../drivers/fsl_clock.h ****     mcg_pll_config_t pll0Config; /*!< MCGPLL0CLK configuration.   */
 568:../drivers/fsl_clock.h **** 
 569:../drivers/fsl_clock.h **** } mcg_config_t;
 570:../drivers/fsl_clock.h **** 
 571:../drivers/fsl_clock.h **** /*******************************************************************************
 572:../drivers/fsl_clock.h ****  * API
 573:../drivers/fsl_clock.h ****  ******************************************************************************/
 574:../drivers/fsl_clock.h **** 
 575:../drivers/fsl_clock.h **** #if defined(__cplusplus)
 576:../drivers/fsl_clock.h **** extern "C" {
 577:../drivers/fsl_clock.h **** #endif /* __cplusplus */
 578:../drivers/fsl_clock.h **** 
 579:../drivers/fsl_clock.h **** /*!
 580:../drivers/fsl_clock.h ****  * @brief Enable the clock for specific IP.
 581:../drivers/fsl_clock.h ****  *
 582:../drivers/fsl_clock.h ****  * @param name  Which clock to enable, see \ref clock_ip_name_t.
 583:../drivers/fsl_clock.h ****  */
 584:../drivers/fsl_clock.h **** static inline void CLOCK_EnableClock(clock_ip_name_t name)
 585:../drivers/fsl_clock.h **** {
  78              		.loc 2 585 1
  79              		.cfi_startproc
  80              		@ args = 0, pretend = 0, frame = 16
  81              		@ frame_needed = 1, uses_anonymous_args = 0
  82 0000 80B5     		push	{r7, lr}
  83              		.cfi_def_cfa_offset 8
  84              		.cfi_offset 7, -8
  85              		.cfi_offset 14, -4
  86 0002 84B0     		sub	sp, sp, #16
  87              		.cfi_def_cfa_offset 24
  88 0004 00AF     		add	r7, sp, #0
  89              		.cfi_def_cfa_register 7
  90 0006 7860     		str	r0, [r7, #4]
 586:../drivers/fsl_clock.h ****     uint32_t regAddr = SIM_BASE + CLK_GATE_ABSTRACT_REG_OFFSET((uint32_t)name);
  91              		.loc 2 586 35
  92 0008 7B68     		ldr	r3, [r7, #4]
  93 000a 1B0C     		lsrs	r3, r3, #16
  94              		.loc 2 586 14
  95 000c 084A     		ldr	r2, .L5
  96 000e 9446     		mov	ip, r2
  97 0010 6344     		add	r3, r3, ip
  98 0012 FB60     		str	r3, [r7, #12]
 587:../drivers/fsl_clock.h ****     (*(volatile uint32_t *)regAddr) |= (1U << CLK_GATE_ABSTRACT_BITS_SHIFT((uint32_t)name));
  99              		.loc 2 587 37
 100 0014 FB68     		ldr	r3, [r7, #12]
 101 0016 1968     		ldr	r1, [r3]
 102              		.loc 2 587 47
 103 0018 7B68     		ldr	r3, [r7, #4]
 104 001a 1B04     		lsls	r3, r3, #16
 105 001c 1B0C     		lsrs	r3, r3, #16
 106              		.loc 2 587 44
 107 001e 0122     		movs	r2, #1
 108 0020 9A40     		lsls	r2, r2, r3
 109              		.loc 2 587 37
 110 0022 FB68     		ldr	r3, [r7, #12]
 111 0024 0A43     		orrs	r2, r1
 112 0026 1A60     		str	r2, [r3]
 588:../drivers/fsl_clock.h **** }
 113              		.loc 2 588 1
 114 0028 C046     		nop
 115 002a BD46     		mov	sp, r7
 116 002c 04B0     		add	sp, sp, #16
 117              		@ sp needed
 118 002e 80BD     		pop	{r7, pc}
 119              	.L6:
 120              		.align	2
 121              	.L5:
 122 0030 00700440 		.word	1074032640
 123              		.cfi_endproc
 124              	.LFE34:
 126              		.section	.text.CLOCK_DisableClock,"ax",%progbits
 127              		.align	1
 128              		.syntax unified
 129              		.code	16
 130              		.thumb_func
 131              		.fpu softvfp
 133              	CLOCK_DisableClock:
 134              	.LFB35:
 589:../drivers/fsl_clock.h **** 
 590:../drivers/fsl_clock.h **** /*!
 591:../drivers/fsl_clock.h ****  * @brief Disable the clock for specific IP.
 592:../drivers/fsl_clock.h ****  *
 593:../drivers/fsl_clock.h ****  * @param name  Which clock to disable, see \ref clock_ip_name_t.
 594:../drivers/fsl_clock.h ****  */
 595:../drivers/fsl_clock.h **** static inline void CLOCK_DisableClock(clock_ip_name_t name)
 596:../drivers/fsl_clock.h **** {
 135              		.loc 2 596 1
 136              		.cfi_startproc
 137              		@ args = 0, pretend = 0, frame = 16
 138              		@ frame_needed = 1, uses_anonymous_args = 0
 139 0000 80B5     		push	{r7, lr}
 140              		.cfi_def_cfa_offset 8
 141              		.cfi_offset 7, -8
 142              		.cfi_offset 14, -4
 143 0002 84B0     		sub	sp, sp, #16
 144              		.cfi_def_cfa_offset 24
 145 0004 00AF     		add	r7, sp, #0
 146              		.cfi_def_cfa_register 7
 147 0006 7860     		str	r0, [r7, #4]
 597:../drivers/fsl_clock.h ****     uint32_t regAddr = SIM_BASE + CLK_GATE_ABSTRACT_REG_OFFSET((uint32_t)name);
 148              		.loc 2 597 35
 149 0008 7B68     		ldr	r3, [r7, #4]
 150 000a 1B0C     		lsrs	r3, r3, #16
 151              		.loc 2 597 14
 152 000c 094A     		ldr	r2, .L8
 153 000e 9446     		mov	ip, r2
 154 0010 6344     		add	r3, r3, ip
 155 0012 FB60     		str	r3, [r7, #12]
 598:../drivers/fsl_clock.h ****     (*(volatile uint32_t *)regAddr) &= ~(1U << CLK_GATE_ABSTRACT_BITS_SHIFT((uint32_t)name));
 156              		.loc 2 598 37
 157 0014 FB68     		ldr	r3, [r7, #12]
 158 0016 1A68     		ldr	r2, [r3]
 159              		.loc 2 598 48
 160 0018 7B68     		ldr	r3, [r7, #4]
 161 001a 1B04     		lsls	r3, r3, #16
 162 001c 1B0C     		lsrs	r3, r3, #16
 163              		.loc 2 598 45
 164 001e 0121     		movs	r1, #1
 165 0020 9940     		lsls	r1, r1, r3
 166 0022 0B00     		movs	r3, r1
 167              		.loc 2 598 40
 168 0024 D943     		mvns	r1, r3
 169              		.loc 2 598 37
 170 0026 FB68     		ldr	r3, [r7, #12]
 171 0028 0A40     		ands	r2, r1
 172 002a 1A60     		str	r2, [r3]
 599:../drivers/fsl_clock.h **** }
 173              		.loc 2 599 1
 174 002c C046     		nop
 175 002e BD46     		mov	sp, r7
 176 0030 04B0     		add	sp, sp, #16
 177              		@ sp needed
 178 0032 80BD     		pop	{r7, pc}
 179              	.L9:
 180              		.align	2
 181              	.L8:
 182 0034 00700440 		.word	1074032640
 183              		.cfi_endproc
 184              	.LFE35:
 186              		.section	.text.EnableIRQ,"ax",%progbits
 187              		.align	1
 188              		.syntax unified
 189              		.code	16
 190              		.thumb_func
 191              		.fpu softvfp
 193              	EnableIRQ:
 194              	.LFB52:
 195              		.file 3 "../drivers/fsl_common.h"
   1:../drivers/fsl_common.h **** /*
   2:../drivers/fsl_common.h ****  * Copyright (c) 2015-2016, Freescale Semiconductor, Inc.
   3:../drivers/fsl_common.h ****  * Copyright 2016-2017 NXP
   4:../drivers/fsl_common.h ****  *
   5:../drivers/fsl_common.h ****  * Redistribution and use in source and binary forms, with or without modification,
   6:../drivers/fsl_common.h ****  * are permitted provided that the following conditions are met:
   7:../drivers/fsl_common.h ****  *
   8:../drivers/fsl_common.h ****  * o Redistributions of source code must retain the above copyright notice, this list
   9:../drivers/fsl_common.h ****  *   of conditions and the following disclaimer.
  10:../drivers/fsl_common.h ****  *
  11:../drivers/fsl_common.h ****  * o Redistributions in binary form must reproduce the above copyright notice, this
  12:../drivers/fsl_common.h ****  *   list of conditions and the following disclaimer in the documentation and/or
  13:../drivers/fsl_common.h ****  *   other materials provided with the distribution.
  14:../drivers/fsl_common.h ****  *
  15:../drivers/fsl_common.h ****  * o Neither the name of the copyright holder nor the names of its
  16:../drivers/fsl_common.h ****  *   contributors may be used to endorse or promote products derived from this
  17:../drivers/fsl_common.h ****  *   software without specific prior written permission.
  18:../drivers/fsl_common.h ****  *
  19:../drivers/fsl_common.h ****  * THIS SOFTWARE IS PROVIDED BY THE COPYRIGHT HOLDERS AND CONTRIBUTORS "AS IS" AND
  20:../drivers/fsl_common.h ****  * ANY EXPRESS OR IMPLIED WARRANTIES, INCLUDING, BUT NOT LIMITED TO, THE IMPLIED
  21:../drivers/fsl_common.h ****  * WARRANTIES OF MERCHANTABILITY AND FITNESS FOR A PARTICULAR PURPOSE ARE
  22:../drivers/fsl_common.h ****  * DISCLAIMED. IN NO EVENT SHALL THE COPYRIGHT HOLDER OR CONTRIBUTORS BE LIABLE FOR
  23:../drivers/fsl_common.h ****  * ANY DIRECT, INDIRECT, INCIDENTAL, SPECIAL, EXEMPLARY, OR CONSEQUENTIAL DAMAGES
  24:../drivers/fsl_common.h ****  * (INCLUDING, BUT NOT LIMITED TO, PROCUREMENT OF SUBSTITUTE GOODS OR SERVICES;
  25:../drivers/fsl_common.h ****  * LOSS OF USE, DATA, OR PROFITS; OR BUSINESS INTERRUPTION) HOWEVER CAUSED AND ON
  26:../drivers/fsl_common.h ****  * ANY THEORY OF LIABILITY, WHETHER IN CONTRACT, STRICT LIABILITY, OR TORT
  27:../drivers/fsl_common.h ****  * (INCLUDING NEGLIGENCE OR OTHERWISE) ARISING IN ANY WAY OUT OF THE USE OF THIS
  28:../drivers/fsl_common.h ****  * SOFTWARE, EVEN IF ADVISED OF THE POSSIBILITY OF SUCH DAMAGE.
  29:../drivers/fsl_common.h ****  */
  30:../drivers/fsl_common.h **** 
  31:../drivers/fsl_common.h **** #ifndef _FSL_COMMON_H_
  32:../drivers/fsl_common.h **** #define _FSL_COMMON_H_
  33:../drivers/fsl_common.h **** 
  34:../drivers/fsl_common.h **** #include <assert.h>
  35:../drivers/fsl_common.h **** #include <stdbool.h>
  36:../drivers/fsl_common.h **** #include <stdint.h>
  37:../drivers/fsl_common.h **** #include <string.h>
  38:../drivers/fsl_common.h **** 
  39:../drivers/fsl_common.h **** #if defined(__ICCARM__)
  40:../drivers/fsl_common.h **** #include <stddef.h>
  41:../drivers/fsl_common.h **** #endif
  42:../drivers/fsl_common.h **** 
  43:../drivers/fsl_common.h **** #include "fsl_device_registers.h"
  44:../drivers/fsl_common.h **** 
  45:../drivers/fsl_common.h **** /*!
  46:../drivers/fsl_common.h ****  * @addtogroup ksdk_common
  47:../drivers/fsl_common.h ****  * @{
  48:../drivers/fsl_common.h ****  */
  49:../drivers/fsl_common.h **** 
  50:../drivers/fsl_common.h **** /*******************************************************************************
  51:../drivers/fsl_common.h ****  * Definitions
  52:../drivers/fsl_common.h ****  ******************************************************************************/
  53:../drivers/fsl_common.h **** 
  54:../drivers/fsl_common.h **** /*! @brief Construct a status code value from a group and code number. */
  55:../drivers/fsl_common.h **** #define MAKE_STATUS(group, code) ((((group)*100) + (code)))
  56:../drivers/fsl_common.h **** 
  57:../drivers/fsl_common.h **** /*! @brief Construct the version number for drivers. */
  58:../drivers/fsl_common.h **** #define MAKE_VERSION(major, minor, bugfix) (((major) << 16) | ((minor) << 8) | (bugfix))
  59:../drivers/fsl_common.h **** 
  60:../drivers/fsl_common.h **** /* Debug console type definition. */
  61:../drivers/fsl_common.h **** #define DEBUG_CONSOLE_DEVICE_TYPE_NONE 0U     /*!< No debug console.             */
  62:../drivers/fsl_common.h **** #define DEBUG_CONSOLE_DEVICE_TYPE_UART 1U     /*!< Debug console base on UART.   */
  63:../drivers/fsl_common.h **** #define DEBUG_CONSOLE_DEVICE_TYPE_LPUART 2U   /*!< Debug console base on LPUART. */
  64:../drivers/fsl_common.h **** #define DEBUG_CONSOLE_DEVICE_TYPE_LPSCI 3U    /*!< Debug console base on LPSCI.  */
  65:../drivers/fsl_common.h **** #define DEBUG_CONSOLE_DEVICE_TYPE_USBCDC 4U   /*!< Debug console base on USBCDC. */
  66:../drivers/fsl_common.h **** #define DEBUG_CONSOLE_DEVICE_TYPE_FLEXCOMM 5U /*!< Debug console base on USBCDC. */
  67:../drivers/fsl_common.h **** #define DEBUG_CONSOLE_DEVICE_TYPE_IUART 6U    /*!< Debug console base on i.MX UART. */
  68:../drivers/fsl_common.h **** 
  69:../drivers/fsl_common.h **** /*! @brief Status group numbers. */
  70:../drivers/fsl_common.h **** enum _status_groups
  71:../drivers/fsl_common.h **** {
  72:../drivers/fsl_common.h ****     kStatusGroup_Generic = 0,                 /*!< Group number for generic status codes. */
  73:../drivers/fsl_common.h ****     kStatusGroup_FLASH = 1,                   /*!< Group number for FLASH status codes. */
  74:../drivers/fsl_common.h ****     kStatusGroup_LPSPI = 4,                   /*!< Group number for LPSPI status codes. */
  75:../drivers/fsl_common.h ****     kStatusGroup_FLEXIO_SPI = 5,              /*!< Group number for FLEXIO SPI status codes. */
  76:../drivers/fsl_common.h ****     kStatusGroup_DSPI = 6,                    /*!< Group number for DSPI status codes. */
  77:../drivers/fsl_common.h ****     kStatusGroup_FLEXIO_UART = 7,             /*!< Group number for FLEXIO UART status codes. */
  78:../drivers/fsl_common.h ****     kStatusGroup_FLEXIO_I2C = 8,              /*!< Group number for FLEXIO I2C status codes. */
  79:../drivers/fsl_common.h ****     kStatusGroup_LPI2C = 9,                   /*!< Group number for LPI2C status codes. */
  80:../drivers/fsl_common.h ****     kStatusGroup_UART = 10,                   /*!< Group number for UART status codes. */
  81:../drivers/fsl_common.h ****     kStatusGroup_I2C = 11,                    /*!< Group number for UART status codes. */
  82:../drivers/fsl_common.h ****     kStatusGroup_LPSCI = 12,                  /*!< Group number for LPSCI status codes. */
  83:../drivers/fsl_common.h ****     kStatusGroup_LPUART = 13,                 /*!< Group number for LPUART status codes. */
  84:../drivers/fsl_common.h ****     kStatusGroup_SPI = 14,                    /*!< Group number for SPI status code.*/
  85:../drivers/fsl_common.h ****     kStatusGroup_XRDC = 15,                   /*!< Group number for XRDC status code.*/
  86:../drivers/fsl_common.h ****     kStatusGroup_SEMA42 = 16,                 /*!< Group number for SEMA42 status code.*/
  87:../drivers/fsl_common.h ****     kStatusGroup_SDHC = 17,                   /*!< Group number for SDHC status code */
  88:../drivers/fsl_common.h ****     kStatusGroup_SDMMC = 18,                  /*!< Group number for SDMMC status code */
  89:../drivers/fsl_common.h ****     kStatusGroup_SAI = 19,                    /*!< Group number for SAI status code */
  90:../drivers/fsl_common.h ****     kStatusGroup_MCG = 20,                    /*!< Group number for MCG status codes. */
  91:../drivers/fsl_common.h ****     kStatusGroup_SCG = 21,                    /*!< Group number for SCG status codes. */
  92:../drivers/fsl_common.h ****     kStatusGroup_SDSPI = 22,                  /*!< Group number for SDSPI status codes. */
  93:../drivers/fsl_common.h ****     kStatusGroup_FLEXIO_I2S = 23,             /*!< Group number for FLEXIO I2S status codes */
  94:../drivers/fsl_common.h ****     kStatusGroup_FLEXIO_MCULCD = 24,          /*!< Group number for FLEXIO LCD status codes */
  95:../drivers/fsl_common.h ****     kStatusGroup_FLASHIAP = 25,               /*!< Group number for FLASHIAP status codes */
  96:../drivers/fsl_common.h ****     kStatusGroup_FLEXCOMM_I2C = 26,           /*!< Group number for FLEXCOMM I2C status codes */
  97:../drivers/fsl_common.h ****     kStatusGroup_I2S = 27,                    /*!< Group number for I2S status codes */
  98:../drivers/fsl_common.h ****     kStatusGroup_IUART = 28,                  /*!< Group number for IUART status codes */
  99:../drivers/fsl_common.h ****     kStatusGroup_SDRAMC = 35,                 /*!< Group number for SDRAMC status codes. */
 100:../drivers/fsl_common.h ****     kStatusGroup_POWER = 39,                  /*!< Group number for POWER status codes. */
 101:../drivers/fsl_common.h ****     kStatusGroup_ENET = 40,                   /*!< Group number for ENET status codes. */
 102:../drivers/fsl_common.h ****     kStatusGroup_PHY = 41,                    /*!< Group number for PHY status codes. */
 103:../drivers/fsl_common.h ****     kStatusGroup_TRGMUX = 42,                 /*!< Group number for TRGMUX status codes. */
 104:../drivers/fsl_common.h ****     kStatusGroup_SMARTCARD = 43,              /*!< Group number for SMARTCARD status codes. */
 105:../drivers/fsl_common.h ****     kStatusGroup_LMEM = 44,                   /*!< Group number for LMEM status codes. */
 106:../drivers/fsl_common.h ****     kStatusGroup_QSPI = 45,                   /*!< Group number for QSPI status codes. */
 107:../drivers/fsl_common.h ****     kStatusGroup_DMA = 50,                    /*!< Group number for DMA status codes. */
 108:../drivers/fsl_common.h ****     kStatusGroup_EDMA = 51,                   /*!< Group number for EDMA status codes. */
 109:../drivers/fsl_common.h ****     kStatusGroup_DMAMGR = 52,                 /*!< Group number for DMAMGR status codes. */
 110:../drivers/fsl_common.h ****     kStatusGroup_FLEXCAN = 53,                /*!< Group number for FlexCAN status codes. */
 111:../drivers/fsl_common.h ****     kStatusGroup_LTC = 54,                    /*!< Group number for LTC status codes. */
 112:../drivers/fsl_common.h ****     kStatusGroup_FLEXIO_CAMERA = 55,          /*!< Group number for FLEXIO CAMERA status codes. */
 113:../drivers/fsl_common.h ****     kStatusGroup_LPC_SPI = 56,                /*!< Group number for LPC_SPI status codes. */
 114:../drivers/fsl_common.h ****     kStatusGroup_LPC_USART = 57,              /*!< Group number for LPC_USART status codes. */
 115:../drivers/fsl_common.h ****     kStatusGroup_DMIC = 58,                   /*!< Group number for DMIC status codes. */
 116:../drivers/fsl_common.h ****     kStatusGroup_SDIF = 59,                   /*!< Group number for SDIF status codes.*/
 117:../drivers/fsl_common.h ****     kStatusGroup_SPIFI = 60,                  /*!< Group number for SPIFI status codes. */
 118:../drivers/fsl_common.h ****     kStatusGroup_OTP = 61,                    /*!< Group number for OTP status codes. */
 119:../drivers/fsl_common.h ****     kStatusGroup_MCAN = 62,                   /*!< Group number for MCAN status codes. */
 120:../drivers/fsl_common.h ****     kStatusGroup_CAAM = 63,                   /*!< Group number for CAAM status codes. */
 121:../drivers/fsl_common.h ****     kStatusGroup_ECSPI = 64,                  /*!< Group number for ECSPI status codes. */
 122:../drivers/fsl_common.h ****     kStatusGroup_USDHC = 65,                  /*!< Group number for USDHC status codes.*/
 123:../drivers/fsl_common.h ****     kStatusGroup_ESAI = 69,                   /*!< Group number for ESAI status codes. */
 124:../drivers/fsl_common.h ****     kStatusGroup_FLEXSPI = 70,                /*!< Group number for FLEXSPI status codes. */
 125:../drivers/fsl_common.h ****     kStatusGroup_NOTIFIER = 98,               /*!< Group number for NOTIFIER status codes. */
 126:../drivers/fsl_common.h ****     kStatusGroup_DebugConsole = 99,           /*!< Group number for debug console status codes. */
 127:../drivers/fsl_common.h ****     kStatusGroup_ApplicationRangeStart = 100, /*!< Starting number for application groups. */
 128:../drivers/fsl_common.h **** };
 129:../drivers/fsl_common.h **** 
 130:../drivers/fsl_common.h **** /*! @brief Generic status return codes. */
 131:../drivers/fsl_common.h **** enum _generic_status
 132:../drivers/fsl_common.h **** {
 133:../drivers/fsl_common.h ****     kStatus_Success = MAKE_STATUS(kStatusGroup_Generic, 0),
 134:../drivers/fsl_common.h ****     kStatus_Fail = MAKE_STATUS(kStatusGroup_Generic, 1),
 135:../drivers/fsl_common.h ****     kStatus_ReadOnly = MAKE_STATUS(kStatusGroup_Generic, 2),
 136:../drivers/fsl_common.h ****     kStatus_OutOfRange = MAKE_STATUS(kStatusGroup_Generic, 3),
 137:../drivers/fsl_common.h ****     kStatus_InvalidArgument = MAKE_STATUS(kStatusGroup_Generic, 4),
 138:../drivers/fsl_common.h ****     kStatus_Timeout = MAKE_STATUS(kStatusGroup_Generic, 5),
 139:../drivers/fsl_common.h ****     kStatus_NoTransferInProgress = MAKE_STATUS(kStatusGroup_Generic, 6),
 140:../drivers/fsl_common.h **** };
 141:../drivers/fsl_common.h **** 
 142:../drivers/fsl_common.h **** /*! @brief Type used for all status and error return values. */
 143:../drivers/fsl_common.h **** typedef int32_t status_t;
 144:../drivers/fsl_common.h **** 
 145:../drivers/fsl_common.h **** /*
 146:../drivers/fsl_common.h ****  * The fsl_clock.h is included here because it needs MAKE_VERSION/MAKE_STATUS/status_t
 147:../drivers/fsl_common.h ****  * defined in previous of this file.
 148:../drivers/fsl_common.h ****  */
 149:../drivers/fsl_common.h **** #include "fsl_clock.h"
 150:../drivers/fsl_common.h **** 
 151:../drivers/fsl_common.h **** /*
 152:../drivers/fsl_common.h ****  * Chip level peripheral reset API, for MCUs that implement peripheral reset control external to a 
 153:../drivers/fsl_common.h ****  */
 154:../drivers/fsl_common.h **** #if ((defined(FSL_FEATURE_SOC_SYSCON_COUNT) && (FSL_FEATURE_SOC_SYSCON_COUNT > 0)) || \
 155:../drivers/fsl_common.h ****      (defined(FSL_FEATURE_SOC_ASYNC_SYSCON_COUNT) && (FSL_FEATURE_SOC_ASYNC_SYSCON_COUNT > 0)))
 156:../drivers/fsl_common.h **** #include "fsl_reset.h"
 157:../drivers/fsl_common.h **** #endif
 158:../drivers/fsl_common.h **** 
 159:../drivers/fsl_common.h **** /*! @name Min/max macros */
 160:../drivers/fsl_common.h **** /* @{ */
 161:../drivers/fsl_common.h **** #if !defined(MIN)
 162:../drivers/fsl_common.h **** #define MIN(a, b) ((a) < (b) ? (a) : (b))
 163:../drivers/fsl_common.h **** #endif
 164:../drivers/fsl_common.h **** 
 165:../drivers/fsl_common.h **** #if !defined(MAX)
 166:../drivers/fsl_common.h **** #define MAX(a, b) ((a) > (b) ? (a) : (b))
 167:../drivers/fsl_common.h **** #endif
 168:../drivers/fsl_common.h **** /* @} */
 169:../drivers/fsl_common.h **** 
 170:../drivers/fsl_common.h **** /*! @brief Computes the number of elements in an array. */
 171:../drivers/fsl_common.h **** #define ARRAY_SIZE(x) (sizeof(x) / sizeof((x)[0]))
 172:../drivers/fsl_common.h **** 
 173:../drivers/fsl_common.h **** /*! @name UINT16_MAX/UINT32_MAX value */
 174:../drivers/fsl_common.h **** /* @{ */
 175:../drivers/fsl_common.h **** #if !defined(UINT16_MAX)
 176:../drivers/fsl_common.h **** #define UINT16_MAX ((uint16_t)-1)
 177:../drivers/fsl_common.h **** #endif
 178:../drivers/fsl_common.h **** 
 179:../drivers/fsl_common.h **** #if !defined(UINT32_MAX)
 180:../drivers/fsl_common.h **** #define UINT32_MAX ((uint32_t)-1)
 181:../drivers/fsl_common.h **** #endif
 182:../drivers/fsl_common.h **** /* @} */
 183:../drivers/fsl_common.h **** 
 184:../drivers/fsl_common.h **** /*! @name Timer utilities */
 185:../drivers/fsl_common.h **** /* @{ */
 186:../drivers/fsl_common.h **** /*! Macro to convert a microsecond period to raw count value */
 187:../drivers/fsl_common.h **** #define USEC_TO_COUNT(us, clockFreqInHz) (uint64_t)((uint64_t)us * clockFreqInHz / 1000000U)
 188:../drivers/fsl_common.h **** /*! Macro to convert a raw count value to microsecond */
 189:../drivers/fsl_common.h **** #define COUNT_TO_USEC(count, clockFreqInHz) (uint64_t)((uint64_t)count * 1000000U / clockFreqInHz)
 190:../drivers/fsl_common.h **** 
 191:../drivers/fsl_common.h **** /*! Macro to convert a millisecond period to raw count value */
 192:../drivers/fsl_common.h **** #define MSEC_TO_COUNT(ms, clockFreqInHz) (uint64_t)((uint64_t)ms * clockFreqInHz / 1000U)
 193:../drivers/fsl_common.h **** /*! Macro to convert a raw count value to millisecond */
 194:../drivers/fsl_common.h **** #define COUNT_TO_MSEC(count, clockFreqInHz) (uint64_t)((uint64_t)count * 1000U / clockFreqInHz)
 195:../drivers/fsl_common.h **** /* @} */
 196:../drivers/fsl_common.h **** 
 197:../drivers/fsl_common.h **** /*******************************************************************************
 198:../drivers/fsl_common.h ****  * API
 199:../drivers/fsl_common.h ****  ******************************************************************************/
 200:../drivers/fsl_common.h **** 
 201:../drivers/fsl_common.h **** #if defined(__cplusplus)
 202:../drivers/fsl_common.h **** extern "C" {
 203:../drivers/fsl_common.h **** #endif
 204:../drivers/fsl_common.h **** 
 205:../drivers/fsl_common.h **** /*!
 206:../drivers/fsl_common.h ****  * @brief Enable specific interrupt.
 207:../drivers/fsl_common.h ****  *
 208:../drivers/fsl_common.h ****  * Enable the interrupt not routed from intmux.
 209:../drivers/fsl_common.h ****  *
 210:../drivers/fsl_common.h ****  * @param interrupt The IRQ number.
 211:../drivers/fsl_common.h ****  */
 212:../drivers/fsl_common.h **** static inline void EnableIRQ(IRQn_Type interrupt)
 213:../drivers/fsl_common.h **** {
 196              		.loc 3 213 1
 197              		.cfi_startproc
 198              		@ args = 0, pretend = 0, frame = 8
 199              		@ frame_needed = 1, uses_anonymous_args = 0
 200 0000 80B5     		push	{r7, lr}
 201              		.cfi_def_cfa_offset 8
 202              		.cfi_offset 7, -8
 203              		.cfi_offset 14, -4
 204 0002 82B0     		sub	sp, sp, #8
 205              		.cfi_def_cfa_offset 16
 206 0004 00AF     		add	r7, sp, #0
 207              		.cfi_def_cfa_register 7
 208 0006 0200     		movs	r2, r0
 209 0008 FB1D     		adds	r3, r7, #7
 210 000a 1A70     		strb	r2, [r3]
 214:../drivers/fsl_common.h ****     if (NotAvail_IRQn == interrupt)
 211              		.loc 3 214 8
 212 000c FB1D     		adds	r3, r7, #7
 213 000e 1B78     		ldrb	r3, [r3]
 214 0010 5BB2     		sxtb	r3, r3
 215 0012 8033     		adds	r3, r3, #128
 216 0014 06D0     		beq	.L13
 215:../drivers/fsl_common.h ****     {
 216:../drivers/fsl_common.h ****         return;
 217:../drivers/fsl_common.h ****     }
 218:../drivers/fsl_common.h **** 
 219:../drivers/fsl_common.h **** #if defined(FSL_FEATURE_SOC_INTMUX_COUNT) && (FSL_FEATURE_SOC_INTMUX_COUNT > 0)
 220:../drivers/fsl_common.h ****     if (interrupt < FSL_FEATURE_INTMUX_IRQ_START_INDEX)
 221:../drivers/fsl_common.h **** #endif
 222:../drivers/fsl_common.h ****     {
 223:../drivers/fsl_common.h **** #if defined(__GIC_PRIO_BITS)
 224:../drivers/fsl_common.h ****         GIC_EnableIRQ(interrupt);
 225:../drivers/fsl_common.h **** #else
 226:../drivers/fsl_common.h ****         NVIC_EnableIRQ(interrupt);
 217              		.loc 3 226 9
 218 0016 FB1D     		adds	r3, r7, #7
 219 0018 1B78     		ldrb	r3, [r3]
 220 001a 5BB2     		sxtb	r3, r3
 221 001c 1800     		movs	r0, r3
 222 001e FFF7FEFF 		bl	NVIC_EnableIRQ
 223 0022 00E0     		b	.L10
 224              	.L13:
 216:../drivers/fsl_common.h ****     }
 225              		.loc 3 216 9
 226 0024 C046     		nop
 227              	.L10:
 227:../drivers/fsl_common.h **** #endif
 228:../drivers/fsl_common.h ****     }
 229:../drivers/fsl_common.h **** }
 228              		.loc 3 229 1
 229 0026 BD46     		mov	sp, r7
 230 0028 02B0     		add	sp, sp, #8
 231              		@ sp needed
 232 002a 80BD     		pop	{r7, pc}
 233              		.cfi_endproc
 234              	.LFE52:
 236              		.section	.bss.s_uartHandle,"aw",%nobits
 237              		.align	2
 240              	s_uartHandle:
 241 0000 00000000 		.space	12
 241      00000000 
 241      00000000 
 242              		.section	.rodata.s_uartBases,"a"
 243              		.align	2
 246              	s_uartBases:
 247 0000 00000000 		.word	0
 248 0004 00B00640 		.word	1074180096
 249 0008 00C00640 		.word	1074184192
 250              		.section	.rodata.s_uartIRQ,"a"
 251              		.align	2
 254              	s_uartIRQ:
 255 0000 80       		.byte	-128
 256 0001 0D       		.byte	13
 257 0002 0E       		.byte	14
 258              		.section	.rodata.s_uartClock,"a"
 259              		.align	2
 262              	s_uartClock:
 263 0000 00000000 		.word	0
 264 0004 0B003410 		.word	271843339
 265 0008 0C003410 		.word	271843340
 266              		.section	.bss.s_uartIsr,"aw",%nobits
 267              		.align	2
 270              	s_uartIsr:
 271 0000 00000000 		.space	4
 272              		.section	.rodata.UART_GetInstance.str1.4,"aMS",%progbits,1
 273              		.align	2
 274              	.LC1:
 275 0000 2E66736C 		.ascii	".fsl_uart.c:169 : instance < uartArrayCount\000"
 275      5F756172 
 275      742E633A 
 275      31363920 
 275      3A20696E 
 276              		.section	.text.UART_GetInstance,"ax",%progbits
 277              		.align	1
 278              		.global	UART_GetInstance
 279              		.syntax unified
 280              		.code	16
 281              		.thumb_func
 282              		.fpu softvfp
 284              	UART_GetInstance:
 285              	.LFB63:
 286              		.file 4 "../drivers/fsl_uart.c"
   1:../drivers/fsl_uart.c **** /*
   2:../drivers/fsl_uart.c ****  * Copyright (c) 2015-2016, Freescale Semiconductor, Inc.
   3:../drivers/fsl_uart.c ****  * Copyright 2016-2017 NXP
   4:../drivers/fsl_uart.c ****  *
   5:../drivers/fsl_uart.c ****  * Redistribution and use in source and binary forms, with or without modification,
   6:../drivers/fsl_uart.c ****  * are permitted provided that the following conditions are met:
   7:../drivers/fsl_uart.c ****  *
   8:../drivers/fsl_uart.c ****  * o Redistributions of source code must retain the above copyright notice, this list
   9:../drivers/fsl_uart.c ****  *   of conditions and the following disclaimer.
  10:../drivers/fsl_uart.c ****  *
  11:../drivers/fsl_uart.c ****  * o Redistributions in binary form must reproduce the above copyright notice, this
  12:../drivers/fsl_uart.c ****  *   list of conditions and the following disclaimer in the documentation and/or
  13:../drivers/fsl_uart.c ****  *   other materials provided with the distribution.
  14:../drivers/fsl_uart.c ****  *
  15:../drivers/fsl_uart.c ****  * o Neither the name of the copyright holder nor the names of its
  16:../drivers/fsl_uart.c ****  *   contributors may be used to endorse or promote products derived from this
  17:../drivers/fsl_uart.c ****  *   software without specific prior written permission.
  18:../drivers/fsl_uart.c ****  *
  19:../drivers/fsl_uart.c ****  * THIS SOFTWARE IS PROVIDED BY THE COPYRIGHT HOLDERS AND CONTRIBUTORS "AS IS" AND
  20:../drivers/fsl_uart.c ****  * ANY EXPRESS OR IMPLIED WARRANTIES, INCLUDING, BUT NOT LIMITED TO, THE IMPLIED
  21:../drivers/fsl_uart.c ****  * WARRANTIES OF MERCHANTABILITY AND FITNESS FOR A PARTICULAR PURPOSE ARE
  22:../drivers/fsl_uart.c ****  * DISCLAIMED. IN NO EVENT SHALL THE COPYRIGHT HOLDER OR CONTRIBUTORS BE LIABLE FOR
  23:../drivers/fsl_uart.c ****  * ANY DIRECT, INDIRECT, INCIDENTAL, SPECIAL, EXEMPLARY, OR CONSEQUENTIAL DAMAGES
  24:../drivers/fsl_uart.c ****  * (INCLUDING, BUT NOT LIMITED TO, PROCUREMENT OF SUBSTITUTE GOODS OR SERVICES;
  25:../drivers/fsl_uart.c ****  * LOSS OF USE, DATA, OR PROFITS; OR BUSINESS INTERRUPTION) HOWEVER CAUSED AND ON
  26:../drivers/fsl_uart.c ****  * ANY THEORY OF LIABILITY, WHETHER IN CONTRACT, STRICT LIABILITY, OR TORT
  27:../drivers/fsl_uart.c ****  * (INCLUDING NEGLIGENCE OR OTHERWISE) ARISING IN ANY WAY OUT OF THE USE OF THIS
  28:../drivers/fsl_uart.c ****  * SOFTWARE, EVEN IF ADVISED OF THE POSSIBILITY OF SUCH DAMAGE.
  29:../drivers/fsl_uart.c ****  */
  30:../drivers/fsl_uart.c **** 
  31:../drivers/fsl_uart.c **** #include "fsl_uart.h"
  32:../drivers/fsl_uart.c **** 
  33:../drivers/fsl_uart.c **** /*******************************************************************************
  34:../drivers/fsl_uart.c ****  * Definitions
  35:../drivers/fsl_uart.c ****  ******************************************************************************/
  36:../drivers/fsl_uart.c **** 
  37:../drivers/fsl_uart.c **** /* UART transfer state. */
  38:../drivers/fsl_uart.c **** enum _uart_tansfer_states
  39:../drivers/fsl_uart.c **** {
  40:../drivers/fsl_uart.c ****     kUART_TxIdle,         /* TX idle. */
  41:../drivers/fsl_uart.c ****     kUART_TxBusy,         /* TX busy. */
  42:../drivers/fsl_uart.c ****     kUART_RxIdle,         /* RX idle. */
  43:../drivers/fsl_uart.c ****     kUART_RxBusy,         /* RX busy. */
  44:../drivers/fsl_uart.c ****     kUART_RxFramingError, /* Rx framing error */
  45:../drivers/fsl_uart.c ****     kUART_RxParityError   /* Rx parity error */
  46:../drivers/fsl_uart.c **** };
  47:../drivers/fsl_uart.c **** 
  48:../drivers/fsl_uart.c **** /* Typedef for interrupt handler. */
  49:../drivers/fsl_uart.c **** typedef void (*uart_isr_t)(UART_Type *base, uart_handle_t *handle);
  50:../drivers/fsl_uart.c **** 
  51:../drivers/fsl_uart.c **** /*******************************************************************************
  52:../drivers/fsl_uart.c ****  * Prototypes
  53:../drivers/fsl_uart.c ****  ******************************************************************************/
  54:../drivers/fsl_uart.c **** 
  55:../drivers/fsl_uart.c **** /*!
  56:../drivers/fsl_uart.c ****  * @brief Get the UART instance from peripheral base address.
  57:../drivers/fsl_uart.c ****  *
  58:../drivers/fsl_uart.c ****  * @param base UART peripheral base address.
  59:../drivers/fsl_uart.c ****  * @return UART instance.
  60:../drivers/fsl_uart.c ****  */
  61:../drivers/fsl_uart.c **** uint32_t UART_GetInstance(UART_Type *base);
  62:../drivers/fsl_uart.c **** 
  63:../drivers/fsl_uart.c **** /*!
  64:../drivers/fsl_uart.c ****  * @brief Get the length of received data in RX ring buffer.
  65:../drivers/fsl_uart.c ****  *
  66:../drivers/fsl_uart.c ****  * @param handle UART handle pointer.
  67:../drivers/fsl_uart.c ****  * @return Length of received data in RX ring buffer.
  68:../drivers/fsl_uart.c ****  */
  69:../drivers/fsl_uart.c **** static size_t UART_TransferGetRxRingBufferLength(uart_handle_t *handle);
  70:../drivers/fsl_uart.c **** 
  71:../drivers/fsl_uart.c **** /*!
  72:../drivers/fsl_uart.c ****  * @brief Check whether the RX ring buffer is full.
  73:../drivers/fsl_uart.c ****  *
  74:../drivers/fsl_uart.c ****  * @param handle UART handle pointer.
  75:../drivers/fsl_uart.c ****  * @retval true  RX ring buffer is full.
  76:../drivers/fsl_uart.c ****  * @retval false RX ring buffer is not full.
  77:../drivers/fsl_uart.c ****  */
  78:../drivers/fsl_uart.c **** static bool UART_TransferIsRxRingBufferFull(uart_handle_t *handle);
  79:../drivers/fsl_uart.c **** 
  80:../drivers/fsl_uart.c **** /*!
  81:../drivers/fsl_uart.c ****  * @brief Read RX register using non-blocking method.
  82:../drivers/fsl_uart.c ****  *
  83:../drivers/fsl_uart.c ****  * This function reads data from the TX register directly, upper layer must make
  84:../drivers/fsl_uart.c ****  * sure the RX register is full or TX FIFO has data before calling this function.
  85:../drivers/fsl_uart.c ****  *
  86:../drivers/fsl_uart.c ****  * @param base UART peripheral base address.
  87:../drivers/fsl_uart.c ****  * @param data Start addresss of the buffer to store the received data.
  88:../drivers/fsl_uart.c ****  * @param length Size of the buffer.
  89:../drivers/fsl_uart.c ****  */
  90:../drivers/fsl_uart.c **** static void UART_ReadNonBlocking(UART_Type *base, uint8_t *data, size_t length);
  91:../drivers/fsl_uart.c **** 
  92:../drivers/fsl_uart.c **** /*!
  93:../drivers/fsl_uart.c ****  * @brief Write to TX register using non-blocking method.
  94:../drivers/fsl_uart.c ****  *
  95:../drivers/fsl_uart.c ****  * This function writes data to the TX register directly, upper layer must make
  96:../drivers/fsl_uart.c ****  * sure the TX register is empty or TX FIFO has empty room before calling this function.
  97:../drivers/fsl_uart.c ****  *
  98:../drivers/fsl_uart.c ****  * @note This function does not check whether all the data has been sent out to bus,
  99:../drivers/fsl_uart.c ****  * so before disable TX, check kUART_TransmissionCompleteFlag to ensure the TX is
 100:../drivers/fsl_uart.c ****  * finished.
 101:../drivers/fsl_uart.c ****  *
 102:../drivers/fsl_uart.c ****  * @param base UART peripheral base address.
 103:../drivers/fsl_uart.c ****  * @param data Start addresss of the data to write.
 104:../drivers/fsl_uart.c ****  * @param length Size of the buffer to be sent.
 105:../drivers/fsl_uart.c ****  */
 106:../drivers/fsl_uart.c **** static void UART_WriteNonBlocking(UART_Type *base, const uint8_t *data, size_t length);
 107:../drivers/fsl_uart.c **** 
 108:../drivers/fsl_uart.c **** /*******************************************************************************
 109:../drivers/fsl_uart.c ****  * Variables
 110:../drivers/fsl_uart.c ****  ******************************************************************************/
 111:../drivers/fsl_uart.c **** /* Array of UART handle. */
 112:../drivers/fsl_uart.c **** #if (defined(UART5))
 113:../drivers/fsl_uart.c **** #define UART_HANDLE_ARRAY_SIZE 6
 114:../drivers/fsl_uart.c **** #else /* UART5 */
 115:../drivers/fsl_uart.c **** #if (defined(UART4))
 116:../drivers/fsl_uart.c **** #define UART_HANDLE_ARRAY_SIZE 5
 117:../drivers/fsl_uart.c **** #else /* UART4 */
 118:../drivers/fsl_uart.c **** #if (defined(UART3))
 119:../drivers/fsl_uart.c **** #define UART_HANDLE_ARRAY_SIZE 4
 120:../drivers/fsl_uart.c **** #else /* UART3 */
 121:../drivers/fsl_uart.c **** #if (defined(UART2))
 122:../drivers/fsl_uart.c **** #define UART_HANDLE_ARRAY_SIZE 3
 123:../drivers/fsl_uart.c **** #else /* UART2 */
 124:../drivers/fsl_uart.c **** #if (defined(UART1))
 125:../drivers/fsl_uart.c **** #define UART_HANDLE_ARRAY_SIZE 2
 126:../drivers/fsl_uart.c **** #else /* UART1 */
 127:../drivers/fsl_uart.c **** #if (defined(UART0))
 128:../drivers/fsl_uart.c **** #define UART_HANDLE_ARRAY_SIZE 1
 129:../drivers/fsl_uart.c **** #else /* UART0 */
 130:../drivers/fsl_uart.c **** #error No UART instance.
 131:../drivers/fsl_uart.c **** #endif /* UART 0 */
 132:../drivers/fsl_uart.c **** #endif /* UART 1 */
 133:../drivers/fsl_uart.c **** #endif /* UART 2 */
 134:../drivers/fsl_uart.c **** #endif /* UART 3 */
 135:../drivers/fsl_uart.c **** #endif /* UART 4 */
 136:../drivers/fsl_uart.c **** #endif /* UART 5 */
 137:../drivers/fsl_uart.c **** static uart_handle_t *s_uartHandle[UART_HANDLE_ARRAY_SIZE];
 138:../drivers/fsl_uart.c **** /* Array of UART peripheral base address. */
 139:../drivers/fsl_uart.c **** static UART_Type *const s_uartBases[] = UART_BASE_PTRS;
 140:../drivers/fsl_uart.c **** 
 141:../drivers/fsl_uart.c **** /* Array of UART IRQ number. */
 142:../drivers/fsl_uart.c **** static const IRQn_Type s_uartIRQ[] = UART_RX_TX_IRQS;
 143:../drivers/fsl_uart.c **** #if !(defined(FSL_SDK_DISABLE_DRIVER_CLOCK_CONTROL) && FSL_SDK_DISABLE_DRIVER_CLOCK_CONTROL)
 144:../drivers/fsl_uart.c **** /* Array of UART clock name. */
 145:../drivers/fsl_uart.c **** static const clock_ip_name_t s_uartClock[] = UART_CLOCKS;
 146:../drivers/fsl_uart.c **** #endif /* FSL_SDK_DISABLE_DRIVER_CLOCK_CONTROL */
 147:../drivers/fsl_uart.c **** 
 148:../drivers/fsl_uart.c **** /* UART ISR for transactional APIs. */
 149:../drivers/fsl_uart.c **** static uart_isr_t s_uartIsr;
 150:../drivers/fsl_uart.c **** 
 151:../drivers/fsl_uart.c **** /*******************************************************************************
 152:../drivers/fsl_uart.c ****  * Code
 153:../drivers/fsl_uart.c ****  ******************************************************************************/
 154:../drivers/fsl_uart.c **** 
 155:../drivers/fsl_uart.c **** uint32_t UART_GetInstance(UART_Type *base)
 156:../drivers/fsl_uart.c **** {
 287              		.loc 4 156 1
 288              		.cfi_startproc
 289              		@ args = 0, pretend = 0, frame = 16
 290              		@ frame_needed = 1, uses_anonymous_args = 0
 291 0000 80B5     		push	{r7, lr}
 292              		.cfi_def_cfa_offset 8
 293              		.cfi_offset 7, -8
 294              		.cfi_offset 14, -4
 295 0002 84B0     		sub	sp, sp, #16
 296              		.cfi_def_cfa_offset 24
 297 0004 00AF     		add	r7, sp, #0
 298              		.cfi_def_cfa_register 7
 299 0006 7860     		str	r0, [r7, #4]
 157:../drivers/fsl_uart.c ****     uint32_t instance;
 158:../drivers/fsl_uart.c ****     uint32_t uartArrayCount = (sizeof(s_uartBases) / sizeof(s_uartBases[0]));
 300              		.loc 4 158 14
 301 0008 0323     		movs	r3, #3
 302 000a BB60     		str	r3, [r7, #8]
 159:../drivers/fsl_uart.c **** 
 160:../drivers/fsl_uart.c ****     /* Find the instance index from base address mappings. */
 161:../drivers/fsl_uart.c ****     for (instance = 0; instance < uartArrayCount; instance++)
 303              		.loc 4 161 19
 304 000c 0023     		movs	r3, #0
 305 000e FB60     		str	r3, [r7, #12]
 306              		.loc 4 161 5
 307 0010 09E0     		b	.L15
 308              	.L18:
 162:../drivers/fsl_uart.c ****     {
 163:../drivers/fsl_uart.c ****         if (s_uartBases[instance] == base)
 309              		.loc 4 163 24
 310 0012 0E4B     		ldr	r3, .L22
 311 0014 FA68     		ldr	r2, [r7, #12]
 312 0016 9200     		lsls	r2, r2, #2
 313 0018 D358     		ldr	r3, [r2, r3]
 314              		.loc 4 163 12
 315 001a 7A68     		ldr	r2, [r7, #4]
 316 001c 9A42     		cmp	r2, r3
 317 001e 07D0     		beq	.L21
 161:../drivers/fsl_uart.c ****     {
 318              		.loc 4 161 59 discriminator 2
 319 0020 FB68     		ldr	r3, [r7, #12]
 320 0022 0133     		adds	r3, r3, #1
 321 0024 FB60     		str	r3, [r7, #12]
 322              	.L15:
 161:../drivers/fsl_uart.c ****     {
 323              		.loc 4 161 5 discriminator 1
 324 0026 FA68     		ldr	r2, [r7, #12]
 325 0028 BB68     		ldr	r3, [r7, #8]
 326 002a 9A42     		cmp	r2, r3
 327 002c F1D3     		bcc	.L18
 328 002e 00E0     		b	.L17
 329              	.L21:
 164:../drivers/fsl_uart.c ****         {
 165:../drivers/fsl_uart.c ****             break;
 330              		.loc 4 165 13
 331 0030 C046     		nop
 332              	.L17:
 166:../drivers/fsl_uart.c ****         }
 167:../drivers/fsl_uart.c ****     }
 168:../drivers/fsl_uart.c **** 
 169:../drivers/fsl_uart.c ****     assert(instance < uartArrayCount);
 333              		.loc 4 169 5
 334 0032 FA68     		ldr	r2, [r7, #12]
 335 0034 BB68     		ldr	r3, [r7, #8]
 336 0036 9A42     		cmp	r2, r3
 337 0038 03D3     		bcc	.L19
 338              		.loc 4 169 5 is_stmt 0 discriminator 1
 339 003a 054B     		ldr	r3, .L22+4
 340 003c 1800     		movs	r0, r3
 341 003e FFF7FEFF 		bl	__assertion_failed
 342              	.L19:
 170:../drivers/fsl_uart.c **** 
 171:../drivers/fsl_uart.c ****     return instance;
 343              		.loc 4 171 12 is_stmt 1
 344 0042 FB68     		ldr	r3, [r7, #12]
 172:../drivers/fsl_uart.c **** }
 345              		.loc 4 172 1
 346 0044 1800     		movs	r0, r3
 347 0046 BD46     		mov	sp, r7
 348 0048 04B0     		add	sp, sp, #16
 349              		@ sp needed
 350 004a 80BD     		pop	{r7, pc}
 351              	.L23:
 352              		.align	2
 353              	.L22:
 354 004c 00000000 		.word	s_uartBases
 355 0050 00000000 		.word	.LC1
 356              		.cfi_endproc
 357              	.LFE63:
 359              		.section	.rodata.UART_TransferGetRxRingBufferLength.str1.4,"aMS",%progbits,1
 360              		.align	2
 361              	.LC3:
 362 0000 2E66736C 		.ascii	".fsl_uart.c:176 : handle\000"
 362      5F756172 
 362      742E633A 
 362      31373620 
 362      3A206861 
 363              		.section	.text.UART_TransferGetRxRingBufferLength,"ax",%progbits
 364              		.align	1
 365              		.syntax unified
 366              		.code	16
 367              		.thumb_func
 368              		.fpu softvfp
 370              	UART_TransferGetRxRingBufferLength:
 371              	.LFB64:
 173:../drivers/fsl_uart.c **** 
 174:../drivers/fsl_uart.c **** static size_t UART_TransferGetRxRingBufferLength(uart_handle_t *handle)
 175:../drivers/fsl_uart.c **** {
 372              		.loc 4 175 1
 373              		.cfi_startproc
 374              		@ args = 0, pretend = 0, frame = 16
 375              		@ frame_needed = 1, uses_anonymous_args = 0
 376 0000 80B5     		push	{r7, lr}
 377              		.cfi_def_cfa_offset 8
 378              		.cfi_offset 7, -8
 379              		.cfi_offset 14, -4
 380 0002 84B0     		sub	sp, sp, #16
 381              		.cfi_def_cfa_offset 24
 382 0004 00AF     		add	r7, sp, #0
 383              		.cfi_def_cfa_register 7
 384 0006 7860     		str	r0, [r7, #4]
 176:../drivers/fsl_uart.c ****     assert(handle);
 385              		.loc 4 176 5
 386 0008 7B68     		ldr	r3, [r7, #4]
 387 000a 002B     		cmp	r3, #0
 388 000c 03D1     		bne	.L25
 389              		.loc 4 176 5 is_stmt 0 discriminator 1
 390 000e 134B     		ldr	r3, .L29
 391 0010 1800     		movs	r0, r3
 392 0012 FFF7FEFF 		bl	__assertion_failed
 393              	.L25:
 177:../drivers/fsl_uart.c **** 
 178:../drivers/fsl_uart.c ****     size_t size;
 179:../drivers/fsl_uart.c **** 
 180:../drivers/fsl_uart.c ****     if (handle->rxRingBufferTail > handle->rxRingBufferHead)
 394              		.loc 4 180 15 is_stmt 1
 395 0016 7B68     		ldr	r3, [r7, #4]
 396 0018 5B8C     		ldrh	r3, [r3, #34]
 397 001a 9AB2     		uxth	r2, r3
 398              		.loc 4 180 42
 399 001c 7B68     		ldr	r3, [r7, #4]
 400 001e 1B8C     		ldrh	r3, [r3, #32]
 401 0020 9BB2     		uxth	r3, r3
 402              		.loc 4 180 8
 403 0022 9A42     		cmp	r2, r3
 404 0024 0CD9     		bls	.L26
 181:../drivers/fsl_uart.c ****     {
 182:../drivers/fsl_uart.c ****         size = (size_t)(handle->rxRingBufferHead + handle->rxRingBufferSize - handle->rxRingBufferT
 405              		.loc 4 182 31
 406 0026 7B68     		ldr	r3, [r7, #4]
 407 0028 1B8C     		ldrh	r3, [r3, #32]
 408 002a 9BB2     		uxth	r3, r3
 409 002c 1A00     		movs	r2, r3
 410              		.loc 4 182 58
 411 002e 7B68     		ldr	r3, [r7, #4]
 412 0030 DB69     		ldr	r3, [r3, #28]
 413              		.loc 4 182 50
 414 0032 D318     		adds	r3, r2, r3
 415              		.loc 4 182 85
 416 0034 7A68     		ldr	r2, [r7, #4]
 417 0036 528C     		ldrh	r2, [r2, #34]
 418 0038 92B2     		uxth	r2, r2
 419              		.loc 4 182 14
 420 003a 9B1A     		subs	r3, r3, r2
 421 003c FB60     		str	r3, [r7, #12]
 422 003e 08E0     		b	.L27
 423              	.L26:
 183:../drivers/fsl_uart.c ****     }
 184:../drivers/fsl_uart.c ****     else
 185:../drivers/fsl_uart.c ****     {
 186:../drivers/fsl_uart.c ****         size = (size_t)(handle->rxRingBufferHead - handle->rxRingBufferTail);
 424              		.loc 4 186 31
 425 0040 7B68     		ldr	r3, [r7, #4]
 426 0042 1B8C     		ldrh	r3, [r3, #32]
 427 0044 9BB2     		uxth	r3, r3
 428 0046 1A00     		movs	r2, r3
 429              		.loc 4 186 58
 430 0048 7B68     		ldr	r3, [r7, #4]
 431 004a 5B8C     		ldrh	r3, [r3, #34]
 432 004c 9BB2     		uxth	r3, r3
 433              		.loc 4 186 50
 434 004e D31A     		subs	r3, r2, r3
 435              		.loc 4 186 14
 436 0050 FB60     		str	r3, [r7, #12]
 437              	.L27:
 187:../drivers/fsl_uart.c ****     }
 188:../drivers/fsl_uart.c **** 
 189:../drivers/fsl_uart.c ****     return size;
 438              		.loc 4 189 12
 439 0052 FB68     		ldr	r3, [r7, #12]
 190:../drivers/fsl_uart.c **** }
 440              		.loc 4 190 1
 441 0054 1800     		movs	r0, r3
 442 0056 BD46     		mov	sp, r7
 443 0058 04B0     		add	sp, sp, #16
 444              		@ sp needed
 445 005a 80BD     		pop	{r7, pc}
 446              	.L30:
 447              		.align	2
 448              	.L29:
 449 005c 00000000 		.word	.LC3
 450              		.cfi_endproc
 451              	.LFE64:
 453              		.section	.rodata.UART_TransferIsRxRingBufferFull.str1.4,"aMS",%progbits,1
 454              		.align	2
 455              	.LC5:
 456 0000 2E66736C 		.ascii	".fsl_uart.c:194 : handle\000"
 456      5F756172 
 456      742E633A 
 456      31393420 
 456      3A206861 
 457              		.section	.text.UART_TransferIsRxRingBufferFull,"ax",%progbits
 458              		.align	1
 459              		.syntax unified
 460              		.code	16
 461              		.thumb_func
 462              		.fpu softvfp
 464              	UART_TransferIsRxRingBufferFull:
 465              	.LFB65:
 191:../drivers/fsl_uart.c **** 
 192:../drivers/fsl_uart.c **** static bool UART_TransferIsRxRingBufferFull(uart_handle_t *handle)
 193:../drivers/fsl_uart.c **** {
 466              		.loc 4 193 1
 467              		.cfi_startproc
 468              		@ args = 0, pretend = 0, frame = 16
 469              		@ frame_needed = 1, uses_anonymous_args = 0
 470 0000 80B5     		push	{r7, lr}
 471              		.cfi_def_cfa_offset 8
 472              		.cfi_offset 7, -8
 473              		.cfi_offset 14, -4
 474 0002 84B0     		sub	sp, sp, #16
 475              		.cfi_def_cfa_offset 24
 476 0004 00AF     		add	r7, sp, #0
 477              		.cfi_def_cfa_register 7
 478 0006 7860     		str	r0, [r7, #4]
 194:../drivers/fsl_uart.c ****     assert(handle);
 479              		.loc 4 194 5
 480 0008 7B68     		ldr	r3, [r7, #4]
 481 000a 002B     		cmp	r3, #0
 482 000c 03D1     		bne	.L32
 483              		.loc 4 194 5 is_stmt 0 discriminator 1
 484 000e 0F4B     		ldr	r3, .L36
 485 0010 1800     		movs	r0, r3
 486 0012 FFF7FEFF 		bl	__assertion_failed
 487              	.L32:
 195:../drivers/fsl_uart.c **** 
 196:../drivers/fsl_uart.c ****     bool full;
 197:../drivers/fsl_uart.c **** 
 198:../drivers/fsl_uart.c ****     if (UART_TransferGetRxRingBufferLength(handle) == (handle->rxRingBufferSize - 1U))
 488              		.loc 4 198 9 is_stmt 1
 489 0016 7B68     		ldr	r3, [r7, #4]
 490 0018 1800     		movs	r0, r3
 491 001a FFF7FEFF 		bl	UART_TransferGetRxRingBufferLength
 492 001e 0200     		movs	r2, r0
 493              		.loc 4 198 62
 494 0020 7B68     		ldr	r3, [r7, #4]
 495 0022 DB69     		ldr	r3, [r3, #28]
 496              		.loc 4 198 81
 497 0024 013B     		subs	r3, r3, #1
 498              		.loc 4 198 8
 499 0026 9A42     		cmp	r2, r3
 500 0028 04D1     		bne	.L33
 199:../drivers/fsl_uart.c ****     {
 200:../drivers/fsl_uart.c ****         full = true;
 501              		.loc 4 200 14
 502 002a 0F23     		movs	r3, #15
 503 002c FB18     		adds	r3, r7, r3
 504 002e 0122     		movs	r2, #1
 505 0030 1A70     		strb	r2, [r3]
 506 0032 03E0     		b	.L34
 507              	.L33:
 201:../drivers/fsl_uart.c ****     }
 202:../drivers/fsl_uart.c ****     else
 203:../drivers/fsl_uart.c ****     {
 204:../drivers/fsl_uart.c ****         full = false;
 508              		.loc 4 204 14
 509 0034 0F23     		movs	r3, #15
 510 0036 FB18     		adds	r3, r7, r3
 511 0038 0022     		movs	r2, #0
 512 003a 1A70     		strb	r2, [r3]
 513              	.L34:
 205:../drivers/fsl_uart.c ****     }
 206:../drivers/fsl_uart.c **** 
 207:../drivers/fsl_uart.c ****     return full;
 514              		.loc 4 207 12
 515 003c 0F23     		movs	r3, #15
 516 003e FB18     		adds	r3, r7, r3
 517 0040 1B78     		ldrb	r3, [r3]
 208:../drivers/fsl_uart.c **** }
 518              		.loc 4 208 1
 519 0042 1800     		movs	r0, r3
 520 0044 BD46     		mov	sp, r7
 521 0046 04B0     		add	sp, sp, #16
 522              		@ sp needed
 523 0048 80BD     		pop	{r7, pc}
 524              	.L37:
 525 004a C046     		.align	2
 526              	.L36:
 527 004c 00000000 		.word	.LC5
 528              		.cfi_endproc
 529              	.LFE65:
 531              		.section	.rodata.UART_Init.str1.4,"aMS",%progbits,1
 532              		.align	2
 533              	.LC7:
 534 0000 2E66736C 		.ascii	".fsl_uart.c:212 : config\000"
 534      5F756172 
 534      742E633A 
 534      32313220 
 534      3A20636F 
 535 0019 000000   		.align	2
 536              	.LC9:
 537 001c 2E66736C 		.ascii	".fsl_uart.c:213 : config->baudRate_Bps\000"
 537      5F756172 
 537      742E633A 
 537      32313320 
 537      3A20636F 
 538              		.global	__aeabi_uidiv
 539              		.section	.text.UART_Init,"ax",%progbits
 540              		.align	1
 541              		.global	UART_Init
 542              		.syntax unified
 543              		.code	16
 544              		.thumb_func
 545              		.fpu softvfp
 547              	UART_Init:
 548              	.LFB66:
 209:../drivers/fsl_uart.c **** 
 210:../drivers/fsl_uart.c **** status_t UART_Init(UART_Type *base, const uart_config_t *config, uint32_t srcClock_Hz)
 211:../drivers/fsl_uart.c **** {
 549              		.loc 4 211 1
 550              		.cfi_startproc
 551              		@ args = 0, pretend = 0, frame = 24
 552              		@ frame_needed = 1, uses_anonymous_args = 0
 553 0000 B0B5     		push	{r4, r5, r7, lr}
 554              		.cfi_def_cfa_offset 16
 555              		.cfi_offset 4, -16
 556              		.cfi_offset 5, -12
 557              		.cfi_offset 7, -8
 558              		.cfi_offset 14, -4
 559 0002 86B0     		sub	sp, sp, #24
 560              		.cfi_def_cfa_offset 40
 561 0004 00AF     		add	r7, sp, #0
 562              		.cfi_def_cfa_register 7
 563 0006 F860     		str	r0, [r7, #12]
 564 0008 B960     		str	r1, [r7, #8]
 565 000a 7A60     		str	r2, [r7, #4]
 212:../drivers/fsl_uart.c ****     assert(config);
 566              		.loc 4 212 5
 567 000c BB68     		ldr	r3, [r7, #8]
 568 000e 002B     		cmp	r3, #0
 569 0010 03D1     		bne	.L39
 570              		.loc 4 212 5 is_stmt 0 discriminator 1
 571 0012 6F4B     		ldr	r3, .L48
 572 0014 1800     		movs	r0, r3
 573 0016 FFF7FEFF 		bl	__assertion_failed
 574              	.L39:
 213:../drivers/fsl_uart.c ****     assert(config->baudRate_Bps);
 575              		.loc 4 213 5 is_stmt 1
 576 001a BB68     		ldr	r3, [r7, #8]
 577 001c 1B68     		ldr	r3, [r3]
 578 001e 002B     		cmp	r3, #0
 579 0020 03D1     		bne	.L40
 580              		.loc 4 213 5 is_stmt 0 discriminator 1
 581 0022 6C4B     		ldr	r3, .L48+4
 582 0024 1800     		movs	r0, r3
 583 0026 FFF7FEFF 		bl	__assertion_failed
 584              	.L40:
 214:../drivers/fsl_uart.c **** #if defined(FSL_FEATURE_UART_HAS_FIFO) && FSL_FEATURE_UART_HAS_FIFO
 215:../drivers/fsl_uart.c ****     assert(FSL_FEATURE_UART_FIFO_SIZEn(base) >= config->txFifoWatermark);
 216:../drivers/fsl_uart.c ****     assert(FSL_FEATURE_UART_FIFO_SIZEn(base) >= config->rxFifoWatermark);
 217:../drivers/fsl_uart.c **** #endif
 218:../drivers/fsl_uart.c **** 
 219:../drivers/fsl_uart.c ****     uint16_t sbr = 0;
 585              		.loc 4 219 14 is_stmt 1
 586 002a 1624     		movs	r4, #22
 587 002c 3B19     		adds	r3, r7, r4
 588 002e 0022     		movs	r2, #0
 589 0030 1A80     		strh	r2, [r3]
 220:../drivers/fsl_uart.c ****     uint8_t temp = 0;
 590              		.loc 4 220 13
 591 0032 1523     		movs	r3, #21
 592 0034 FB18     		adds	r3, r7, r3
 593 0036 0022     		movs	r2, #0
 594 0038 1A70     		strb	r2, [r3]
 221:../drivers/fsl_uart.c ****     uint32_t baudDiff = 0;
 595              		.loc 4 221 14
 596 003a 0023     		movs	r3, #0
 597 003c 3B61     		str	r3, [r7, #16]
 222:../drivers/fsl_uart.c **** 
 223:../drivers/fsl_uart.c ****     /* Calculate the baud rate modulo divisor, sbr*/
 224:../drivers/fsl_uart.c ****     sbr = srcClock_Hz / (config->baudRate_Bps * 16);
 598              		.loc 4 224 32
 599 003e BB68     		ldr	r3, [r7, #8]
 600 0040 1B68     		ldr	r3, [r3]
 601              		.loc 4 224 47
 602 0042 1B01     		lsls	r3, r3, #4
 603              		.loc 4 224 23
 604 0044 1900     		movs	r1, r3
 605 0046 7868     		ldr	r0, [r7, #4]
 606 0048 FFF7FEFF 		bl	__aeabi_uidiv
 607              	.LVL0:
 608 004c 0300     		movs	r3, r0
 609 004e 1A00     		movs	r2, r3
 610              		.loc 4 224 9
 611 0050 3B19     		adds	r3, r7, r4
 612 0052 1A80     		strh	r2, [r3]
 225:../drivers/fsl_uart.c ****     /* set sbrTemp to 1 if the sourceClockInHz can not satisfy the desired baud rate */
 226:../drivers/fsl_uart.c ****     if (sbr == 0)
 613              		.loc 4 226 8
 614 0054 3B19     		adds	r3, r7, r4
 615 0056 1B88     		ldrh	r3, [r3]
 616 0058 002B     		cmp	r3, #0
 617 005a 02D1     		bne	.L41
 227:../drivers/fsl_uart.c ****     {
 228:../drivers/fsl_uart.c ****         sbr = 1;
 618              		.loc 4 228 13
 619 005c 3B19     		adds	r3, r7, r4
 620 005e 0122     		movs	r2, #1
 621 0060 1A80     		strh	r2, [r3]
 622              	.L41:
 229:../drivers/fsl_uart.c ****     }
 230:../drivers/fsl_uart.c **** #if defined(FSL_FEATURE_UART_HAS_BAUD_RATE_FINE_ADJUST_SUPPORT) && FSL_FEATURE_UART_HAS_BAUD_RATE_F
 231:../drivers/fsl_uart.c ****     /* Determine if a fractional divider is needed to fine tune closer to the
 232:../drivers/fsl_uart.c ****      * desired baud, each value of brfa is in 1/32 increments,
 233:../drivers/fsl_uart.c ****      * hence the multiply-by-32. */
 234:../drivers/fsl_uart.c ****     uint32_t tempBaud = 0;
 235:../drivers/fsl_uart.c **** 
 236:../drivers/fsl_uart.c ****     uint16_t brfa = (2 * srcClock_Hz / (config->baudRate_Bps)) - 32 * sbr;
 237:../drivers/fsl_uart.c **** 
 238:../drivers/fsl_uart.c ****     /* Calculate the baud rate based on the temporary SBR values and BRFA */
 239:../drivers/fsl_uart.c ****     tempBaud = (srcClock_Hz * 2 / ((sbr * 32 + brfa)));
 240:../drivers/fsl_uart.c ****     baudDiff =
 241:../drivers/fsl_uart.c ****         (tempBaud > config->baudRate_Bps) ? (tempBaud - config->baudRate_Bps) : (config->baudRate_B
 242:../drivers/fsl_uart.c **** 
 243:../drivers/fsl_uart.c **** #else
 244:../drivers/fsl_uart.c ****     /* Calculate the baud rate based on the temporary SBR values */
 245:../drivers/fsl_uart.c ****     baudDiff = (srcClock_Hz / (sbr * 16)) - config->baudRate_Bps;
 623              		.loc 4 245 36
 624 0062 1625     		movs	r5, #22
 625 0064 7B19     		adds	r3, r7, r5
 626 0066 1B88     		ldrh	r3, [r3]
 627 0068 1B01     		lsls	r3, r3, #4
 628              		.loc 4 245 29
 629 006a 1900     		movs	r1, r3
 630 006c 7868     		ldr	r0, [r7, #4]
 631 006e FFF7FEFF 		bl	__aeabi_uidiv
 632              	.LVL1:
 633 0072 0300     		movs	r3, r0
 634 0074 1A00     		movs	r2, r3
 635              		.loc 4 245 51
 636 0076 BB68     		ldr	r3, [r7, #8]
 637 0078 1B68     		ldr	r3, [r3]
 638              		.loc 4 245 14
 639 007a D31A     		subs	r3, r2, r3
 640 007c 3B61     		str	r3, [r7, #16]
 246:../drivers/fsl_uart.c **** 
 247:../drivers/fsl_uart.c ****     /* Select the better value between sbr and (sbr + 1) */
 248:../drivers/fsl_uart.c ****     if (baudDiff > (config->baudRate_Bps - (srcClock_Hz / (16 * (sbr + 1)))))
 641              		.loc 4 248 27
 642 007e BB68     		ldr	r3, [r7, #8]
 643 0080 1C68     		ldr	r4, [r3]
 644              		.loc 4 248 70
 645 0082 7B19     		adds	r3, r7, r5
 646 0084 1B88     		ldrh	r3, [r3]
 647 0086 0133     		adds	r3, r3, #1
 648              		.loc 4 248 63
 649 0088 1B01     		lsls	r3, r3, #4
 650              		.loc 4 248 57
 651 008a 1900     		movs	r1, r3
 652 008c 7868     		ldr	r0, [r7, #4]
 653 008e FFF7FEFF 		bl	__aeabi_uidiv
 654              	.LVL2:
 655 0092 0300     		movs	r3, r0
 656              		.loc 4 248 42
 657 0094 E31A     		subs	r3, r4, r3
 658              		.loc 4 248 8
 659 0096 3A69     		ldr	r2, [r7, #16]
 660 0098 9A42     		cmp	r2, r3
 661 009a 11D9     		bls	.L42
 249:../drivers/fsl_uart.c ****     {
 250:../drivers/fsl_uart.c ****         baudDiff = config->baudRate_Bps - (srcClock_Hz / (16 * (sbr + 1)));
 662              		.loc 4 250 26
 663 009c BB68     		ldr	r3, [r7, #8]
 664 009e 1C68     		ldr	r4, [r3]
 665              		.loc 4 250 69
 666 00a0 7B19     		adds	r3, r7, r5
 667 00a2 1B88     		ldrh	r3, [r3]
 668 00a4 0133     		adds	r3, r3, #1
 669              		.loc 4 250 62
 670 00a6 1B01     		lsls	r3, r3, #4
 671              		.loc 4 250 56
 672 00a8 1900     		movs	r1, r3
 673 00aa 7868     		ldr	r0, [r7, #4]
 674 00ac FFF7FEFF 		bl	__aeabi_uidiv
 675              	.LVL3:
 676 00b0 0300     		movs	r3, r0
 677              		.loc 4 250 18
 678 00b2 E31A     		subs	r3, r4, r3
 679 00b4 3B61     		str	r3, [r7, #16]
 251:../drivers/fsl_uart.c ****         sbr++;
 680              		.loc 4 251 12
 681 00b6 7B19     		adds	r3, r7, r5
 682 00b8 1A88     		ldrh	r2, [r3]
 683 00ba 7B19     		adds	r3, r7, r5
 684 00bc 0132     		adds	r2, r2, #1
 685 00be 1A80     		strh	r2, [r3]
 686              	.L42:
 252:../drivers/fsl_uart.c ****     }
 253:../drivers/fsl_uart.c **** #endif
 254:../drivers/fsl_uart.c **** 
 255:../drivers/fsl_uart.c ****     /* next, check to see if actual baud rate is within 3% of desired baud rate
 256:../drivers/fsl_uart.c ****      * based on the calculate SBR value */
 257:../drivers/fsl_uart.c ****     if (baudDiff > ((config->baudRate_Bps / 100) * 3))
 687              		.loc 4 257 28
 688 00c0 BB68     		ldr	r3, [r7, #8]
 689 00c2 1B68     		ldr	r3, [r3]
 690              		.loc 4 257 43
 691 00c4 6421     		movs	r1, #100
 692 00c6 1800     		movs	r0, r3
 693 00c8 FFF7FEFF 		bl	__aeabi_uidiv
 694              	.LVL4:
 695 00cc 0300     		movs	r3, r0
 696 00ce 1A00     		movs	r2, r3
 697              		.loc 4 257 50
 698 00d0 1300     		movs	r3, r2
 699 00d2 5B00     		lsls	r3, r3, #1
 700 00d4 9B18     		adds	r3, r3, r2
 701              		.loc 4 257 8
 702 00d6 3A69     		ldr	r2, [r7, #16]
 703 00d8 9A42     		cmp	r2, r3
 704 00da 01D9     		bls	.L43
 258:../drivers/fsl_uart.c ****     {
 259:../drivers/fsl_uart.c ****         /* Unacceptable baud rate difference of more than 3%*/
 260:../drivers/fsl_uart.c ****         return kStatus_UART_BaudrateNotSupport;
 705              		.loc 4 260 16
 706 00dc 3E4B     		ldr	r3, .L48+8
 707 00de 72E0     		b	.L44
 708              	.L43:
 261:../drivers/fsl_uart.c ****     }
 262:../drivers/fsl_uart.c **** 
 263:../drivers/fsl_uart.c **** #if !(defined(FSL_SDK_DISABLE_DRIVER_CLOCK_CONTROL) && FSL_SDK_DISABLE_DRIVER_CLOCK_CONTROL)
 264:../drivers/fsl_uart.c ****     /* Enable uart clock */
 265:../drivers/fsl_uart.c ****     CLOCK_EnableClock(s_uartClock[UART_GetInstance(base)]);
 709              		.loc 4 265 35
 710 00e0 FB68     		ldr	r3, [r7, #12]
 711 00e2 1800     		movs	r0, r3
 712 00e4 FFF7FEFF 		bl	UART_GetInstance
 713 00e8 0200     		movs	r2, r0
 714              		.loc 4 265 5
 715 00ea 3C4B     		ldr	r3, .L48+12
 716 00ec 9200     		lsls	r2, r2, #2
 717 00ee D358     		ldr	r3, [r2, r3]
 718 00f0 1800     		movs	r0, r3
 719 00f2 FFF7FEFF 		bl	CLOCK_EnableClock
 266:../drivers/fsl_uart.c **** #endif /* FSL_SDK_DISABLE_DRIVER_CLOCK_CONTROL */
 267:../drivers/fsl_uart.c **** 
 268:../drivers/fsl_uart.c ****     /* Disable UART TX RX before setting. */
 269:../drivers/fsl_uart.c ****     base->C2 &= ~(UART_C2_TE_MASK | UART_C2_RE_MASK);
 720              		.loc 4 269 14
 721 00f6 FB68     		ldr	r3, [r7, #12]
 722 00f8 DB78     		ldrb	r3, [r3, #3]
 723 00fa DBB2     		uxtb	r3, r3
 724 00fc 0C22     		movs	r2, #12
 725 00fe 9343     		bics	r3, r2
 726 0100 DAB2     		uxtb	r2, r3
 727 0102 FB68     		ldr	r3, [r7, #12]
 728 0104 DA70     		strb	r2, [r3, #3]
 270:../drivers/fsl_uart.c **** 
 271:../drivers/fsl_uart.c ****     /* Write the sbr value to the BDH and BDL registers*/
 272:../drivers/fsl_uart.c ****     base->BDH = (base->BDH & ~UART_BDH_SBR_MASK) | (uint8_t)(sbr >> 8);
 729              		.loc 4 272 22
 730 0106 FB68     		ldr	r3, [r7, #12]
 731 0108 1B78     		ldrb	r3, [r3]
 732 010a DBB2     		uxtb	r3, r3
 733              		.loc 4 272 28
 734 010c 1F22     		movs	r2, #31
 735 010e 9343     		bics	r3, r2
 736 0110 DAB2     		uxtb	r2, r3
 737              		.loc 4 272 52
 738 0112 1621     		movs	r1, #22
 739 0114 7B18     		adds	r3, r7, r1
 740 0116 1B88     		ldrh	r3, [r3]
 741 0118 1B0A     		lsrs	r3, r3, #8
 742 011a 9BB2     		uxth	r3, r3
 743 011c DBB2     		uxtb	r3, r3
 744              		.loc 4 272 50
 745 011e 1343     		orrs	r3, r2
 746 0120 DAB2     		uxtb	r2, r3
 747              		.loc 4 272 15
 748 0122 FB68     		ldr	r3, [r7, #12]
 749 0124 1A70     		strb	r2, [r3]
 273:../drivers/fsl_uart.c ****     base->BDL = (uint8_t)sbr;
 750              		.loc 4 273 17
 751 0126 7B18     		adds	r3, r7, r1
 752 0128 1B88     		ldrh	r3, [r3]
 753 012a DAB2     		uxtb	r2, r3
 754              		.loc 4 273 15
 755 012c FB68     		ldr	r3, [r7, #12]
 756 012e 5A70     		strb	r2, [r3, #1]
 274:../drivers/fsl_uart.c **** 
 275:../drivers/fsl_uart.c **** #if defined(FSL_FEATURE_UART_HAS_BAUD_RATE_FINE_ADJUST_SUPPORT) && FSL_FEATURE_UART_HAS_BAUD_RATE_F
 276:../drivers/fsl_uart.c ****     /* Write the brfa value to the register*/
 277:../drivers/fsl_uart.c ****     base->C4 = (base->C4 & ~UART_C4_BRFA_MASK) | (brfa & UART_C4_BRFA_MASK);
 278:../drivers/fsl_uart.c **** #endif
 279:../drivers/fsl_uart.c **** 
 280:../drivers/fsl_uart.c ****     /* Set bit count and parity mode. */
 281:../drivers/fsl_uart.c ****     temp = base->C1 & ~(UART_C1_PE_MASK | UART_C1_PT_MASK | UART_C1_M_MASK);
 757              		.loc 4 281 16
 758 0130 FB68     		ldr	r3, [r7, #12]
 759 0132 9B78     		ldrb	r3, [r3, #2]
 760 0134 DAB2     		uxtb	r2, r3
 761              		.loc 4 281 10
 762 0136 1520     		movs	r0, #21
 763 0138 3B18     		adds	r3, r7, r0
 764 013a 1321     		movs	r1, #19
 765 013c 8A43     		bics	r2, r1
 766 013e 1A70     		strb	r2, [r3]
 282:../drivers/fsl_uart.c **** 
 283:../drivers/fsl_uart.c ****     if (kUART_ParityDisabled != config->parityMode)
 767              		.loc 4 283 39
 768 0140 BB68     		ldr	r3, [r7, #8]
 769 0142 1B79     		ldrb	r3, [r3, #4]
 770              		.loc 4 283 8
 771 0144 002B     		cmp	r3, #0
 772 0146 09D0     		beq	.L45
 284:../drivers/fsl_uart.c ****     {
 285:../drivers/fsl_uart.c ****         temp |= (UART_C1_M_MASK | (uint8_t)config->parityMode);
 773              		.loc 4 285 50
 774 0148 BB68     		ldr	r3, [r7, #8]
 775 014a 1A79     		ldrb	r2, [r3, #4]
 776              		.loc 4 285 14
 777 014c 3B18     		adds	r3, r7, r0
 778 014e 1B78     		ldrb	r3, [r3]
 779 0150 1343     		orrs	r3, r2
 780 0152 DAB2     		uxtb	r2, r3
 781 0154 3B18     		adds	r3, r7, r0
 782 0156 1021     		movs	r1, #16
 783 0158 0A43     		orrs	r2, r1
 784 015a 1A70     		strb	r2, [r3]
 785              	.L45:
 286:../drivers/fsl_uart.c ****     }
 287:../drivers/fsl_uart.c **** 
 288:../drivers/fsl_uart.c ****     base->C1 = temp;
 786              		.loc 4 288 14
 787 015c FB68     		ldr	r3, [r7, #12]
 788 015e 1520     		movs	r0, #21
 789 0160 3A18     		adds	r2, r7, r0
 790 0162 1278     		ldrb	r2, [r2]
 791 0164 9A70     		strb	r2, [r3, #2]
 289:../drivers/fsl_uart.c **** 
 290:../drivers/fsl_uart.c **** #if defined(FSL_FEATURE_UART_HAS_STOP_BIT_CONFIG_SUPPORT) && FSL_FEATURE_UART_HAS_STOP_BIT_CONFIG_S
 291:../drivers/fsl_uart.c ****     /* Set stop bit per char */
 292:../drivers/fsl_uart.c ****     base->BDH = (base->BDH & ~UART_BDH_SBNS_MASK) | UART_BDH_SBNS((uint8_t)config->stopBitCount);
 792              		.loc 4 292 22
 793 0166 FB68     		ldr	r3, [r7, #12]
 794 0168 1B78     		ldrb	r3, [r3]
 795 016a DBB2     		uxtb	r3, r3
 796              		.loc 4 292 28
 797 016c 2022     		movs	r2, #32
 798 016e 9343     		bics	r3, r2
 799 0170 DAB2     		uxtb	r2, r3
 800              		.loc 4 292 53
 801 0172 BB68     		ldr	r3, [r7, #8]
 802 0174 5B79     		ldrb	r3, [r3, #5]
 803 0176 5B01     		lsls	r3, r3, #5
 804 0178 DBB2     		uxtb	r3, r3
 805 017a 2021     		movs	r1, #32
 806 017c 0B40     		ands	r3, r1
 807 017e DBB2     		uxtb	r3, r3
 808              		.loc 4 292 51
 809 0180 1343     		orrs	r3, r2
 810 0182 DAB2     		uxtb	r2, r3
 811              		.loc 4 292 15
 812 0184 FB68     		ldr	r3, [r7, #12]
 813 0186 1A70     		strb	r2, [r3]
 293:../drivers/fsl_uart.c **** #endif
 294:../drivers/fsl_uart.c **** 
 295:../drivers/fsl_uart.c **** #if defined(FSL_FEATURE_UART_HAS_FIFO) && FSL_FEATURE_UART_HAS_FIFO
 296:../drivers/fsl_uart.c ****     /* Set tx/rx FIFO watermark */
 297:../drivers/fsl_uart.c ****     base->TWFIFO = config->txFifoWatermark;
 298:../drivers/fsl_uart.c ****     base->RWFIFO = config->rxFifoWatermark;
 299:../drivers/fsl_uart.c **** 
 300:../drivers/fsl_uart.c ****     /* Enable tx/rx FIFO */
 301:../drivers/fsl_uart.c ****     base->PFIFO |= (UART_PFIFO_TXFE_MASK | UART_PFIFO_RXFE_MASK);
 302:../drivers/fsl_uart.c **** 
 303:../drivers/fsl_uart.c ****     /* Flush FIFO */
 304:../drivers/fsl_uart.c ****     base->CFIFO |= (UART_CFIFO_TXFLUSH_MASK | UART_CFIFO_RXFLUSH_MASK);
 305:../drivers/fsl_uart.c **** #endif
 306:../drivers/fsl_uart.c **** 
 307:../drivers/fsl_uart.c ****     /* Enable TX/RX base on configure structure. */
 308:../drivers/fsl_uart.c ****     temp = base->C2;
 814              		.loc 4 308 10
 815 0188 3B18     		adds	r3, r7, r0
 816 018a FA68     		ldr	r2, [r7, #12]
 817 018c D278     		ldrb	r2, [r2, #3]
 818 018e 1A70     		strb	r2, [r3]
 309:../drivers/fsl_uart.c **** 
 310:../drivers/fsl_uart.c ****     if (config->enableTx)
 819              		.loc 4 310 15
 820 0190 BB68     		ldr	r3, [r7, #8]
 821 0192 9B79     		ldrb	r3, [r3, #6]
 822              		.loc 4 310 8
 823 0194 002B     		cmp	r3, #0
 824 0196 05D0     		beq	.L46
 311:../drivers/fsl_uart.c ****     {
 312:../drivers/fsl_uart.c ****         temp |= UART_C2_TE_MASK;
 825              		.loc 4 312 14
 826 0198 3B18     		adds	r3, r7, r0
 827 019a 3A18     		adds	r2, r7, r0
 828 019c 1278     		ldrb	r2, [r2]
 829 019e 0821     		movs	r1, #8
 830 01a0 0A43     		orrs	r2, r1
 831 01a2 1A70     		strb	r2, [r3]
 832              	.L46:
 313:../drivers/fsl_uart.c ****     }
 314:../drivers/fsl_uart.c **** 
 315:../drivers/fsl_uart.c ****     if (config->enableRx)
 833              		.loc 4 315 15
 834 01a4 BB68     		ldr	r3, [r7, #8]
 835 01a6 DB79     		ldrb	r3, [r3, #7]
 836              		.loc 4 315 8
 837 01a8 002B     		cmp	r3, #0
 838 01aa 06D0     		beq	.L47
 316:../drivers/fsl_uart.c ****     {
 317:../drivers/fsl_uart.c ****         temp |= UART_C2_RE_MASK;
 839              		.loc 4 317 14
 840 01ac 1522     		movs	r2, #21
 841 01ae BB18     		adds	r3, r7, r2
 842 01b0 BA18     		adds	r2, r7, r2
 843 01b2 1278     		ldrb	r2, [r2]
 844 01b4 0421     		movs	r1, #4
 845 01b6 0A43     		orrs	r2, r1
 846 01b8 1A70     		strb	r2, [r3]
 847              	.L47:
 318:../drivers/fsl_uart.c ****     }
 319:../drivers/fsl_uart.c **** 
 320:../drivers/fsl_uart.c ****     base->C2 = temp;
 848              		.loc 4 320 14
 849 01ba FB68     		ldr	r3, [r7, #12]
 850 01bc 1522     		movs	r2, #21
 851 01be BA18     		adds	r2, r7, r2
 852 01c0 1278     		ldrb	r2, [r2]
 853 01c2 DA70     		strb	r2, [r3, #3]
 321:../drivers/fsl_uart.c **** 
 322:../drivers/fsl_uart.c ****     return kStatus_Success;
 854              		.loc 4 322 12
 855 01c4 0023     		movs	r3, #0
 856              	.L44:
 323:../drivers/fsl_uart.c **** }
 857              		.loc 4 323 1
 858 01c6 1800     		movs	r0, r3
 859 01c8 BD46     		mov	sp, r7
 860 01ca 06B0     		add	sp, sp, #24
 861              		@ sp needed
 862 01cc B0BD     		pop	{r4, r5, r7, pc}
 863              	.L49:
 864 01ce C046     		.align	2
 865              	.L48:
 866 01d0 00000000 		.word	.LC7
 867 01d4 1C000000 		.word	.LC9
 868 01d8 F5030000 		.word	1013
 869 01dc 00000000 		.word	s_uartClock
 870              		.cfi_endproc
 871              	.LFE66:
 873              		.section	.text.UART_Deinit,"ax",%progbits
 874              		.align	1
 875              		.global	UART_Deinit
 876              		.syntax unified
 877              		.code	16
 878              		.thumb_func
 879              		.fpu softvfp
 881              	UART_Deinit:
 882              	.LFB67:
 324:../drivers/fsl_uart.c **** 
 325:../drivers/fsl_uart.c **** void UART_Deinit(UART_Type *base)
 326:../drivers/fsl_uart.c **** {
 883              		.loc 4 326 1
 884              		.cfi_startproc
 885              		@ args = 0, pretend = 0, frame = 8
 886              		@ frame_needed = 1, uses_anonymous_args = 0
 887 0000 80B5     		push	{r7, lr}
 888              		.cfi_def_cfa_offset 8
 889              		.cfi_offset 7, -8
 890              		.cfi_offset 14, -4
 891 0002 82B0     		sub	sp, sp, #8
 892              		.cfi_def_cfa_offset 16
 893 0004 00AF     		add	r7, sp, #0
 894              		.cfi_def_cfa_register 7
 895 0006 7860     		str	r0, [r7, #4]
 327:../drivers/fsl_uart.c **** #if defined(FSL_FEATURE_UART_HAS_FIFO) && FSL_FEATURE_UART_HAS_FIFO
 328:../drivers/fsl_uart.c ****     /* Wait tx FIFO send out*/
 329:../drivers/fsl_uart.c ****     while (0 != base->TCFIFO)
 330:../drivers/fsl_uart.c ****     {
 331:../drivers/fsl_uart.c ****     }
 332:../drivers/fsl_uart.c **** #endif
 333:../drivers/fsl_uart.c ****     /* Wait last char shoft out */
 334:../drivers/fsl_uart.c ****     while (0 == (base->S1 & UART_S1_TC_MASK))
 896              		.loc 4 334 11
 897 0008 C046     		nop
 898              	.L51:
 899              		.loc 4 334 22 discriminator 1
 900 000a 7B68     		ldr	r3, [r7, #4]
 901 000c 1B79     		ldrb	r3, [r3, #4]
 902 000e DBB2     		uxtb	r3, r3
 903              		.loc 4 334 27 discriminator 1
 904 0010 1A00     		movs	r2, r3
 905 0012 4023     		movs	r3, #64
 906 0014 1340     		ands	r3, r2
 907              		.loc 4 334 11 discriminator 1
 908 0016 F8D0     		beq	.L51
 335:../drivers/fsl_uart.c ****     {
 336:../drivers/fsl_uart.c ****     }
 337:../drivers/fsl_uart.c **** 
 338:../drivers/fsl_uart.c ****     /* Disable the module. */
 339:../drivers/fsl_uart.c ****     base->C2 = 0;
 909              		.loc 4 339 14
 910 0018 7B68     		ldr	r3, [r7, #4]
 911 001a 0022     		movs	r2, #0
 912 001c DA70     		strb	r2, [r3, #3]
 340:../drivers/fsl_uart.c **** 
 341:../drivers/fsl_uart.c **** #if !(defined(FSL_SDK_DISABLE_DRIVER_CLOCK_CONTROL) && FSL_SDK_DISABLE_DRIVER_CLOCK_CONTROL)
 342:../drivers/fsl_uart.c ****     /* Disable uart clock */
 343:../drivers/fsl_uart.c ****     CLOCK_DisableClock(s_uartClock[UART_GetInstance(base)]);
 913              		.loc 4 343 36
 914 001e 7B68     		ldr	r3, [r7, #4]
 915 0020 1800     		movs	r0, r3
 916 0022 FFF7FEFF 		bl	UART_GetInstance
 917 0026 0200     		movs	r2, r0
 918              		.loc 4 343 5
 919 0028 044B     		ldr	r3, .L52
 920 002a 9200     		lsls	r2, r2, #2
 921 002c D358     		ldr	r3, [r2, r3]
 922 002e 1800     		movs	r0, r3
 923 0030 FFF7FEFF 		bl	CLOCK_DisableClock
 344:../drivers/fsl_uart.c **** #endif /* FSL_SDK_DISABLE_DRIVER_CLOCK_CONTROL */
 345:../drivers/fsl_uart.c **** }
 924              		.loc 4 345 1
 925 0034 C046     		nop
 926 0036 BD46     		mov	sp, r7
 927 0038 02B0     		add	sp, sp, #8
 928              		@ sp needed
 929 003a 80BD     		pop	{r7, pc}
 930              	.L53:
 931              		.align	2
 932              	.L52:
 933 003c 00000000 		.word	s_uartClock
 934              		.cfi_endproc
 935              	.LFE67:
 937              		.section	.rodata.UART_GetDefaultConfig.str1.4,"aMS",%progbits,1
 938              		.align	2
 939              	.LC13:
 940 0000 2E66736C 		.ascii	".fsl_uart.c:349 : config\000"
 940      5F756172 
 940      742E633A 
 940      33343920 
 940      3A20636F 
 941              		.section	.text.UART_GetDefaultConfig,"ax",%progbits
 942              		.align	1
 943              		.global	UART_GetDefaultConfig
 944              		.syntax unified
 945              		.code	16
 946              		.thumb_func
 947              		.fpu softvfp
 949              	UART_GetDefaultConfig:
 950              	.LFB68:
 346:../drivers/fsl_uart.c **** 
 347:../drivers/fsl_uart.c **** void UART_GetDefaultConfig(uart_config_t *config)
 348:../drivers/fsl_uart.c **** {
 951              		.loc 4 348 1
 952              		.cfi_startproc
 953              		@ args = 0, pretend = 0, frame = 8
 954              		@ frame_needed = 1, uses_anonymous_args = 0
 955 0000 80B5     		push	{r7, lr}
 956              		.cfi_def_cfa_offset 8
 957              		.cfi_offset 7, -8
 958              		.cfi_offset 14, -4
 959 0002 82B0     		sub	sp, sp, #8
 960              		.cfi_def_cfa_offset 16
 961 0004 00AF     		add	r7, sp, #0
 962              		.cfi_def_cfa_register 7
 963 0006 7860     		str	r0, [r7, #4]
 349:../drivers/fsl_uart.c ****     assert(config);
 964              		.loc 4 349 5
 965 0008 7B68     		ldr	r3, [r7, #4]
 966 000a 002B     		cmp	r3, #0
 967 000c 03D1     		bne	.L55
 968              		.loc 4 349 5 is_stmt 0 discriminator 1
 969 000e 0C4B     		ldr	r3, .L56
 970 0010 1800     		movs	r0, r3
 971 0012 FFF7FEFF 		bl	__assertion_failed
 972              	.L55:
 350:../drivers/fsl_uart.c **** 
 351:../drivers/fsl_uart.c ****     config->baudRate_Bps = 115200U;
 973              		.loc 4 351 26 is_stmt 1
 974 0016 7B68     		ldr	r3, [r7, #4]
 975 0018 E122     		movs	r2, #225
 976 001a 5202     		lsls	r2, r2, #9
 977 001c 1A60     		str	r2, [r3]
 352:../drivers/fsl_uart.c ****     config->parityMode = kUART_ParityDisabled;
 978              		.loc 4 352 24
 979 001e 7B68     		ldr	r3, [r7, #4]
 980 0020 0022     		movs	r2, #0
 981 0022 1A71     		strb	r2, [r3, #4]
 353:../drivers/fsl_uart.c **** #if defined(FSL_FEATURE_UART_HAS_STOP_BIT_CONFIG_SUPPORT) && FSL_FEATURE_UART_HAS_STOP_BIT_CONFIG_S
 354:../drivers/fsl_uart.c ****     config->stopBitCount = kUART_OneStopBit;
 982              		.loc 4 354 26
 983 0024 7B68     		ldr	r3, [r7, #4]
 984 0026 0022     		movs	r2, #0
 985 0028 5A71     		strb	r2, [r3, #5]
 355:../drivers/fsl_uart.c **** #endif
 356:../drivers/fsl_uart.c **** #if defined(FSL_FEATURE_UART_HAS_FIFO) && FSL_FEATURE_UART_HAS_FIFO
 357:../drivers/fsl_uart.c ****     config->txFifoWatermark = 0;
 358:../drivers/fsl_uart.c ****     config->rxFifoWatermark = 1;
 359:../drivers/fsl_uart.c **** #endif
 360:../drivers/fsl_uart.c ****     config->enableTx = false;
 986              		.loc 4 360 22
 987 002a 7B68     		ldr	r3, [r7, #4]
 988 002c 0022     		movs	r2, #0
 989 002e 9A71     		strb	r2, [r3, #6]
 361:../drivers/fsl_uart.c ****     config->enableRx = false;
 990              		.loc 4 361 22
 991 0030 7B68     		ldr	r3, [r7, #4]
 992 0032 0022     		movs	r2, #0
 993 0034 DA71     		strb	r2, [r3, #7]
 362:../drivers/fsl_uart.c **** }
 994              		.loc 4 362 1
 995 0036 C046     		nop
 996 0038 BD46     		mov	sp, r7
 997 003a 02B0     		add	sp, sp, #8
 998              		@ sp needed
 999 003c 80BD     		pop	{r7, pc}
 1000              	.L57:
 1001 003e C046     		.align	2
 1002              	.L56:
 1003 0040 00000000 		.word	.LC13
 1004              		.cfi_endproc
 1005              	.LFE68:
 1007              		.section	.rodata.UART_SetBaudRate.str1.4,"aMS",%progbits,1
 1008              		.align	2
 1009              	.LC15:
 1010 0000 2E66736C 		.ascii	".fsl_uart.c:366 : baudRate_Bps\000"
 1010      5F756172 
 1010      742E633A 
 1010      33363620 
 1010      3A206261 
 1011              		.section	.text.UART_SetBaudRate,"ax",%progbits
 1012              		.align	1
 1013              		.global	UART_SetBaudRate
 1014              		.syntax unified
 1015              		.code	16
 1016              		.thumb_func
 1017              		.fpu softvfp
 1019              	UART_SetBaudRate:
 1020              	.LFB69:
 363:../drivers/fsl_uart.c **** 
 364:../drivers/fsl_uart.c **** status_t UART_SetBaudRate(UART_Type *base, uint32_t baudRate_Bps, uint32_t srcClock_Hz)
 365:../drivers/fsl_uart.c **** {
 1021              		.loc 4 365 1
 1022              		.cfi_startproc
 1023              		@ args = 0, pretend = 0, frame = 32
 1024              		@ frame_needed = 1, uses_anonymous_args = 0
 1025 0000 90B5     		push	{r4, r7, lr}
 1026              		.cfi_def_cfa_offset 12
 1027              		.cfi_offset 4, -12
 1028              		.cfi_offset 7, -8
 1029              		.cfi_offset 14, -4
 1030 0002 89B0     		sub	sp, sp, #36
 1031              		.cfi_def_cfa_offset 48
 1032 0004 00AF     		add	r7, sp, #0
 1033              		.cfi_def_cfa_register 7
 1034 0006 F860     		str	r0, [r7, #12]
 1035 0008 B960     		str	r1, [r7, #8]
 1036 000a 7A60     		str	r2, [r7, #4]
 366:../drivers/fsl_uart.c ****     assert(baudRate_Bps);
 1037              		.loc 4 366 5
 1038 000c BB68     		ldr	r3, [r7, #8]
 1039 000e 002B     		cmp	r3, #0
 1040 0010 03D1     		bne	.L59
 1041              		.loc 4 366 5 is_stmt 0 discriminator 1
 1042 0012 414B     		ldr	r3, .L64
 1043 0014 1800     		movs	r0, r3
 1044 0016 FFF7FEFF 		bl	__assertion_failed
 1045              	.L59:
 367:../drivers/fsl_uart.c **** 
 368:../drivers/fsl_uart.c ****     uint16_t sbr = 0;
 1046              		.loc 4 368 14 is_stmt 1
 1047 001a 1E24     		movs	r4, #30
 1048 001c 3B19     		adds	r3, r7, r4
 1049 001e 0022     		movs	r2, #0
 1050 0020 1A80     		strh	r2, [r3]
 369:../drivers/fsl_uart.c ****     uint32_t baudDiff = 0;
 1051              		.loc 4 369 14
 1052 0022 0023     		movs	r3, #0
 1053 0024 BB61     		str	r3, [r7, #24]
 370:../drivers/fsl_uart.c ****     uint8_t oldCtrl;
 371:../drivers/fsl_uart.c **** 
 372:../drivers/fsl_uart.c ****     /* Calculate the baud rate modulo divisor, sbr*/
 373:../drivers/fsl_uart.c ****     sbr = srcClock_Hz / (baudRate_Bps * 16);
 1054              		.loc 4 373 39
 1055 0026 BB68     		ldr	r3, [r7, #8]
 1056 0028 1B01     		lsls	r3, r3, #4
 1057              		.loc 4 373 23
 1058 002a 1900     		movs	r1, r3
 1059 002c 7868     		ldr	r0, [r7, #4]
 1060 002e FFF7FEFF 		bl	__aeabi_uidiv
 1061              	.LVL5:
 1062 0032 0300     		movs	r3, r0
 1063 0034 1A00     		movs	r2, r3
 1064              		.loc 4 373 9
 1065 0036 3B19     		adds	r3, r7, r4
 1066 0038 1A80     		strh	r2, [r3]
 374:../drivers/fsl_uart.c ****     /* set sbrTemp to 1 if the sourceClockInHz can not satisfy the desired baud rate */
 375:../drivers/fsl_uart.c ****     if (sbr == 0)
 1067              		.loc 4 375 8
 1068 003a 3B19     		adds	r3, r7, r4
 1069 003c 1B88     		ldrh	r3, [r3]
 1070 003e 002B     		cmp	r3, #0
 1071 0040 02D1     		bne	.L60
 376:../drivers/fsl_uart.c ****     {
 377:../drivers/fsl_uart.c ****         sbr = 1;
 1072              		.loc 4 377 13
 1073 0042 3B19     		adds	r3, r7, r4
 1074 0044 0122     		movs	r2, #1
 1075 0046 1A80     		strh	r2, [r3]
 1076              	.L60:
 378:../drivers/fsl_uart.c ****     }
 379:../drivers/fsl_uart.c **** #if defined(FSL_FEATURE_UART_HAS_BAUD_RATE_FINE_ADJUST_SUPPORT) && FSL_FEATURE_UART_HAS_BAUD_RATE_F
 380:../drivers/fsl_uart.c ****     /* Determine if a fractional divider is needed to fine tune closer to the
 381:../drivers/fsl_uart.c ****      * desired baud, each value of brfa is in 1/32 increments,
 382:../drivers/fsl_uart.c ****      * hence the multiply-by-32. */
 383:../drivers/fsl_uart.c ****     uint32_t tempBaud = 0;
 384:../drivers/fsl_uart.c **** 
 385:../drivers/fsl_uart.c ****     uint16_t brfa = (2 * srcClock_Hz / (baudRate_Bps)) - 32 * sbr;
 386:../drivers/fsl_uart.c **** 
 387:../drivers/fsl_uart.c ****     /* Calculate the baud rate based on the temporary SBR values and BRFA */
 388:../drivers/fsl_uart.c ****     tempBaud = (srcClock_Hz * 2 / ((sbr * 32 + brfa)));
 389:../drivers/fsl_uart.c ****     baudDiff = (tempBaud > baudRate_Bps) ? (tempBaud - baudRate_Bps) : (baudRate_Bps - tempBaud);
 390:../drivers/fsl_uart.c **** #else
 391:../drivers/fsl_uart.c ****     /* Calculate the baud rate based on the temporary SBR values */
 392:../drivers/fsl_uart.c ****     baudDiff = (srcClock_Hz / (sbr * 16)) - baudRate_Bps;
 1077              		.loc 4 392 36
 1078 0048 1E24     		movs	r4, #30
 1079 004a 3B19     		adds	r3, r7, r4
 1080 004c 1B88     		ldrh	r3, [r3]
 1081 004e 1B01     		lsls	r3, r3, #4
 1082              		.loc 4 392 29
 1083 0050 1900     		movs	r1, r3
 1084 0052 7868     		ldr	r0, [r7, #4]
 1085 0054 FFF7FEFF 		bl	__aeabi_uidiv
 1086              	.LVL6:
 1087 0058 0300     		movs	r3, r0
 1088 005a 1A00     		movs	r2, r3
 1089              		.loc 4 392 14
 1090 005c BB68     		ldr	r3, [r7, #8]
 1091 005e D31A     		subs	r3, r2, r3
 1092 0060 BB61     		str	r3, [r7, #24]
 393:../drivers/fsl_uart.c **** 
 394:../drivers/fsl_uart.c ****     /* Select the better value between sbr and (sbr + 1) */
 395:../drivers/fsl_uart.c ****     if (baudDiff > (baudRate_Bps - (srcClock_Hz / (16 * (sbr + 1)))))
 1093              		.loc 4 395 62
 1094 0062 3B19     		adds	r3, r7, r4
 1095 0064 1B88     		ldrh	r3, [r3]
 1096 0066 0133     		adds	r3, r3, #1
 1097              		.loc 4 395 55
 1098 0068 1B01     		lsls	r3, r3, #4
 1099              		.loc 4 395 49
 1100 006a 1900     		movs	r1, r3
 1101 006c 7868     		ldr	r0, [r7, #4]
 1102 006e FFF7FEFF 		bl	__aeabi_uidiv
 1103              	.LVL7:
 1104 0072 0300     		movs	r3, r0
 1105 0074 1A00     		movs	r2, r3
 1106              		.loc 4 395 34
 1107 0076 BB68     		ldr	r3, [r7, #8]
 1108 0078 9B1A     		subs	r3, r3, r2
 1109              		.loc 4 395 8
 1110 007a BA69     		ldr	r2, [r7, #24]
 1111 007c 9A42     		cmp	r2, r3
 1112 007e 11D9     		bls	.L61
 396:../drivers/fsl_uart.c ****     {
 397:../drivers/fsl_uart.c ****         baudDiff = baudRate_Bps - (srcClock_Hz / (16 * (sbr + 1)));
 1113              		.loc 4 397 61
 1114 0080 3B19     		adds	r3, r7, r4
 1115 0082 1B88     		ldrh	r3, [r3]
 1116 0084 0133     		adds	r3, r3, #1
 1117              		.loc 4 397 54
 1118 0086 1B01     		lsls	r3, r3, #4
 1119              		.loc 4 397 48
 1120 0088 1900     		movs	r1, r3
 1121 008a 7868     		ldr	r0, [r7, #4]
 1122 008c FFF7FEFF 		bl	__aeabi_uidiv
 1123              	.LVL8:
 1124 0090 0300     		movs	r3, r0
 1125 0092 1A00     		movs	r2, r3
 1126              		.loc 4 397 18
 1127 0094 BB68     		ldr	r3, [r7, #8]
 1128 0096 9B1A     		subs	r3, r3, r2
 1129 0098 BB61     		str	r3, [r7, #24]
 398:../drivers/fsl_uart.c ****         sbr++;
 1130              		.loc 4 398 12
 1131 009a 3B19     		adds	r3, r7, r4
 1132 009c 1A88     		ldrh	r2, [r3]
 1133 009e 3B19     		adds	r3, r7, r4
 1134 00a0 0132     		adds	r2, r2, #1
 1135 00a2 1A80     		strh	r2, [r3]
 1136              	.L61:
 399:../drivers/fsl_uart.c ****     }
 400:../drivers/fsl_uart.c **** #endif
 401:../drivers/fsl_uart.c **** 
 402:../drivers/fsl_uart.c ****     /* next, check to see if actual baud rate is within 3% of desired baud rate
 403:../drivers/fsl_uart.c ****      * based on the calculate SBR value */
 404:../drivers/fsl_uart.c ****     if (baudDiff < ((baudRate_Bps / 100) * 3))
 1137              		.loc 4 404 35
 1138 00a4 BB68     		ldr	r3, [r7, #8]
 1139 00a6 6421     		movs	r1, #100
 1140 00a8 1800     		movs	r0, r3
 1141 00aa FFF7FEFF 		bl	__aeabi_uidiv
 1142              	.LVL9:
 1143 00ae 0300     		movs	r3, r0
 1144 00b0 1A00     		movs	r2, r3
 1145              		.loc 4 404 42
 1146 00b2 1300     		movs	r3, r2
 1147 00b4 5B00     		lsls	r3, r3, #1
 1148 00b6 9B18     		adds	r3, r3, r2
 1149              		.loc 4 404 8
 1150 00b8 BA69     		ldr	r2, [r7, #24]
 1151 00ba 9A42     		cmp	r2, r3
 1152 00bc 27D2     		bcs	.L62
 405:../drivers/fsl_uart.c ****     {
 406:../drivers/fsl_uart.c ****         /* Store C2 before disable Tx and Rx */
 407:../drivers/fsl_uart.c ****         oldCtrl = base->C2;
 1153              		.loc 4 407 17
 1154 00be 1721     		movs	r1, #23
 1155 00c0 7B18     		adds	r3, r7, r1
 1156 00c2 FA68     		ldr	r2, [r7, #12]
 1157 00c4 D278     		ldrb	r2, [r2, #3]
 1158 00c6 1A70     		strb	r2, [r3]
 408:../drivers/fsl_uart.c **** 
 409:../drivers/fsl_uart.c ****         /* Disable UART TX RX before setting. */
 410:../drivers/fsl_uart.c ****         base->C2 &= ~(UART_C2_TE_MASK | UART_C2_RE_MASK);
 1159              		.loc 4 410 18
 1160 00c8 FB68     		ldr	r3, [r7, #12]
 1161 00ca DB78     		ldrb	r3, [r3, #3]
 1162 00cc DBB2     		uxtb	r3, r3
 1163 00ce 0C22     		movs	r2, #12
 1164 00d0 9343     		bics	r3, r2
 1165 00d2 DAB2     		uxtb	r2, r3
 1166 00d4 FB68     		ldr	r3, [r7, #12]
 1167 00d6 DA70     		strb	r2, [r3, #3]
 411:../drivers/fsl_uart.c **** 
 412:../drivers/fsl_uart.c ****         /* Write the sbr value to the BDH and BDL registers*/
 413:../drivers/fsl_uart.c ****         base->BDH = (base->BDH & ~UART_BDH_SBR_MASK) | (uint8_t)(sbr >> 8);
 1168              		.loc 4 413 26
 1169 00d8 FB68     		ldr	r3, [r7, #12]
 1170 00da 1B78     		ldrb	r3, [r3]
 1171 00dc DBB2     		uxtb	r3, r3
 1172              		.loc 4 413 32
 1173 00de 1F22     		movs	r2, #31
 1174 00e0 9343     		bics	r3, r2
 1175 00e2 DAB2     		uxtb	r2, r3
 1176              		.loc 4 413 56
 1177 00e4 1E20     		movs	r0, #30
 1178 00e6 3B18     		adds	r3, r7, r0
 1179 00e8 1B88     		ldrh	r3, [r3]
 1180 00ea 1B0A     		lsrs	r3, r3, #8
 1181 00ec 9BB2     		uxth	r3, r3
 1182 00ee DBB2     		uxtb	r3, r3
 1183              		.loc 4 413 54
 1184 00f0 1343     		orrs	r3, r2
 1185 00f2 DAB2     		uxtb	r2, r3
 1186              		.loc 4 413 19
 1187 00f4 FB68     		ldr	r3, [r7, #12]
 1188 00f6 1A70     		strb	r2, [r3]
 414:../drivers/fsl_uart.c ****         base->BDL = (uint8_t)sbr;
 1189              		.loc 4 414 21
 1190 00f8 3B18     		adds	r3, r7, r0
 1191 00fa 1B88     		ldrh	r3, [r3]
 1192 00fc DAB2     		uxtb	r2, r3
 1193              		.loc 4 414 19
 1194 00fe FB68     		ldr	r3, [r7, #12]
 1195 0100 5A70     		strb	r2, [r3, #1]
 415:../drivers/fsl_uart.c **** 
 416:../drivers/fsl_uart.c **** #if defined(FSL_FEATURE_UART_HAS_BAUD_RATE_FINE_ADJUST_SUPPORT) && FSL_FEATURE_UART_HAS_BAUD_RATE_F
 417:../drivers/fsl_uart.c ****         /* Write the brfa value to the register*/
 418:../drivers/fsl_uart.c ****         base->C4 = (base->C4 & ~UART_C4_BRFA_MASK) | (brfa & UART_C4_BRFA_MASK);
 419:../drivers/fsl_uart.c **** #endif
 420:../drivers/fsl_uart.c ****         /* Restore C2. */
 421:../drivers/fsl_uart.c ****         base->C2 = oldCtrl;
 1196              		.loc 4 421 18
 1197 0102 FB68     		ldr	r3, [r7, #12]
 1198 0104 7A18     		adds	r2, r7, r1
 1199 0106 1278     		ldrb	r2, [r2]
 1200 0108 DA70     		strb	r2, [r3, #3]
 422:../drivers/fsl_uart.c **** 
 423:../drivers/fsl_uart.c ****         return kStatus_Success;
 1201              		.loc 4 423 16
 1202 010a 0023     		movs	r3, #0
 1203 010c 00E0     		b	.L63
 1204              	.L62:
 424:../drivers/fsl_uart.c ****     }
 425:../drivers/fsl_uart.c ****     else
 426:../drivers/fsl_uart.c ****     {
 427:../drivers/fsl_uart.c ****         /* Unacceptable baud rate difference of more than 3%*/
 428:../drivers/fsl_uart.c ****         return kStatus_UART_BaudrateNotSupport;
 1205              		.loc 4 428 16
 1206 010e 034B     		ldr	r3, .L64+4
 1207              	.L63:
 429:../drivers/fsl_uart.c ****     }
 430:../drivers/fsl_uart.c **** }
 1208              		.loc 4 430 1
 1209 0110 1800     		movs	r0, r3
 1210 0112 BD46     		mov	sp, r7
 1211 0114 09B0     		add	sp, sp, #36
 1212              		@ sp needed
 1213 0116 90BD     		pop	{r4, r7, pc}
 1214              	.L65:
 1215              		.align	2
 1216              	.L64:
 1217 0118 00000000 		.word	.LC15
 1218 011c F5030000 		.word	1013
 1219              		.cfi_endproc
 1220              	.LFE69:
 1222              		.section	.text.UART_EnableInterrupts,"ax",%progbits
 1223              		.align	1
 1224              		.global	UART_EnableInterrupts
 1225              		.syntax unified
 1226              		.code	16
 1227              		.thumb_func
 1228              		.fpu softvfp
 1230              	UART_EnableInterrupts:
 1231              	.LFB70:
 431:../drivers/fsl_uart.c **** 
 432:../drivers/fsl_uart.c **** void UART_EnableInterrupts(UART_Type *base, uint32_t mask)
 433:../drivers/fsl_uart.c **** {
 1232              		.loc 4 433 1
 1233              		.cfi_startproc
 1234              		@ args = 0, pretend = 0, frame = 8
 1235              		@ frame_needed = 1, uses_anonymous_args = 0
 1236 0000 80B5     		push	{r7, lr}
 1237              		.cfi_def_cfa_offset 8
 1238              		.cfi_offset 7, -8
 1239              		.cfi_offset 14, -4
 1240 0002 82B0     		sub	sp, sp, #8
 1241              		.cfi_def_cfa_offset 16
 1242 0004 00AF     		add	r7, sp, #0
 1243              		.cfi_def_cfa_register 7
 1244 0006 7860     		str	r0, [r7, #4]
 1245 0008 3960     		str	r1, [r7]
 434:../drivers/fsl_uart.c ****     mask &= kUART_AllInterruptsEnable;
 1246              		.loc 4 434 10
 1247 000a 3B68     		ldr	r3, [r7]
 1248 000c 114A     		ldr	r2, .L67
 1249 000e 1340     		ands	r3, r2
 1250 0010 3B60     		str	r3, [r7]
 435:../drivers/fsl_uart.c **** 
 436:../drivers/fsl_uart.c ****     /* The interrupt mask is combined by control bits from several register: ((CFIFO<<24) | (C3<<16
 437:../drivers/fsl_uart.c ****      */
 438:../drivers/fsl_uart.c ****     base->BDH |= mask;
 1251              		.loc 4 438 15
 1252 0012 7B68     		ldr	r3, [r7, #4]
 1253 0014 1B78     		ldrb	r3, [r3]
 1254 0016 DAB2     		uxtb	r2, r3
 1255 0018 3B68     		ldr	r3, [r7]
 1256 001a DBB2     		uxtb	r3, r3
 1257 001c 1343     		orrs	r3, r2
 1258 001e DAB2     		uxtb	r2, r3
 1259 0020 7B68     		ldr	r3, [r7, #4]
 1260 0022 1A70     		strb	r2, [r3]
 439:../drivers/fsl_uart.c ****     base->C2 |= (mask >> 8);
 1261              		.loc 4 439 14
 1262 0024 7B68     		ldr	r3, [r7, #4]
 1263 0026 DB78     		ldrb	r3, [r3, #3]
 1264 0028 DAB2     		uxtb	r2, r3
 1265              		.loc 4 439 23
 1266 002a 3B68     		ldr	r3, [r7]
 1267 002c 1B0A     		lsrs	r3, r3, #8
 1268              		.loc 4 439 14
 1269 002e DBB2     		uxtb	r3, r3
 1270 0030 1343     		orrs	r3, r2
 1271 0032 DAB2     		uxtb	r2, r3
 1272 0034 7B68     		ldr	r3, [r7, #4]
 1273 0036 DA70     		strb	r2, [r3, #3]
 440:../drivers/fsl_uart.c ****     base->C3 |= (mask >> 16);
 1274              		.loc 4 440 14
 1275 0038 7B68     		ldr	r3, [r7, #4]
 1276 003a 9B79     		ldrb	r3, [r3, #6]
 1277 003c DAB2     		uxtb	r2, r3
 1278              		.loc 4 440 23
 1279 003e 3B68     		ldr	r3, [r7]
 1280 0040 1B0C     		lsrs	r3, r3, #16
 1281              		.loc 4 440 14
 1282 0042 DBB2     		uxtb	r3, r3
 1283 0044 1343     		orrs	r3, r2
 1284 0046 DAB2     		uxtb	r2, r3
 1285 0048 7B68     		ldr	r3, [r7, #4]
 1286 004a 9A71     		strb	r2, [r3, #6]
 441:../drivers/fsl_uart.c **** 
 442:../drivers/fsl_uart.c **** #if defined(FSL_FEATURE_UART_HAS_FIFO) && FSL_FEATURE_UART_HAS_FIFO
 443:../drivers/fsl_uart.c ****     base->CFIFO |= (mask >> 24);
 444:../drivers/fsl_uart.c **** #endif
 445:../drivers/fsl_uart.c **** }
 1287              		.loc 4 445 1
 1288 004c C046     		nop
 1289 004e BD46     		mov	sp, r7
 1290 0050 02B0     		add	sp, sp, #8
 1291              		@ sp needed
 1292 0052 80BD     		pop	{r7, pc}
 1293              	.L68:
 1294              		.align	2
 1295              	.L67:
 1296 0054 C0F00F00 		.word	1044672
 1297              		.cfi_endproc
 1298              	.LFE70:
 1300              		.section	.text.UART_DisableInterrupts,"ax",%progbits
 1301              		.align	1
 1302              		.global	UART_DisableInterrupts
 1303              		.syntax unified
 1304              		.code	16
 1305              		.thumb_func
 1306              		.fpu softvfp
 1308              	UART_DisableInterrupts:
 1309              	.LFB71:
 446:../drivers/fsl_uart.c **** 
 447:../drivers/fsl_uart.c **** void UART_DisableInterrupts(UART_Type *base, uint32_t mask)
 448:../drivers/fsl_uart.c **** {
 1310              		.loc 4 448 1
 1311              		.cfi_startproc
 1312              		@ args = 0, pretend = 0, frame = 8
 1313              		@ frame_needed = 1, uses_anonymous_args = 0
 1314 0000 80B5     		push	{r7, lr}
 1315              		.cfi_def_cfa_offset 8
 1316              		.cfi_offset 7, -8
 1317              		.cfi_offset 14, -4
 1318 0002 82B0     		sub	sp, sp, #8
 1319              		.cfi_def_cfa_offset 16
 1320 0004 00AF     		add	r7, sp, #0
 1321              		.cfi_def_cfa_register 7
 1322 0006 7860     		str	r0, [r7, #4]
 1323 0008 3960     		str	r1, [r7]
 449:../drivers/fsl_uart.c ****     mask &= kUART_AllInterruptsEnable;
 1324              		.loc 4 449 10
 1325 000a 3B68     		ldr	r3, [r7]
 1326 000c 144A     		ldr	r2, .L70
 1327 000e 1340     		ands	r3, r2
 1328 0010 3B60     		str	r3, [r7]
 450:../drivers/fsl_uart.c **** 
 451:../drivers/fsl_uart.c ****     /* The interrupt mask is combined by control bits from several register: ((CFIFO<<24) | (C3<<16
 452:../drivers/fsl_uart.c ****      */
 453:../drivers/fsl_uart.c ****     base->BDH &= ~mask;
 1329              		.loc 4 453 15
 1330 0012 7B68     		ldr	r3, [r7, #4]
 1331 0014 1B78     		ldrb	r3, [r3]
 1332 0016 DBB2     		uxtb	r3, r3
 1333 0018 3A68     		ldr	r2, [r7]
 1334 001a D2B2     		uxtb	r2, r2
 1335 001c D243     		mvns	r2, r2
 1336 001e D2B2     		uxtb	r2, r2
 1337 0020 1340     		ands	r3, r2
 1338 0022 DAB2     		uxtb	r2, r3
 1339 0024 7B68     		ldr	r3, [r7, #4]
 1340 0026 1A70     		strb	r2, [r3]
 454:../drivers/fsl_uart.c ****     base->C2 &= ~(mask >> 8);
 1341              		.loc 4 454 14
 1342 0028 7B68     		ldr	r3, [r7, #4]
 1343 002a DB78     		ldrb	r3, [r3, #3]
 1344 002c DBB2     		uxtb	r3, r3
 1345              		.loc 4 454 24
 1346 002e 3A68     		ldr	r2, [r7]
 1347 0030 120A     		lsrs	r2, r2, #8
 1348              		.loc 4 454 14
 1349 0032 D2B2     		uxtb	r2, r2
 1350 0034 D243     		mvns	r2, r2
 1351 0036 D2B2     		uxtb	r2, r2
 1352 0038 1340     		ands	r3, r2
 1353 003a DAB2     		uxtb	r2, r3
 1354 003c 7B68     		ldr	r3, [r7, #4]
 1355 003e DA70     		strb	r2, [r3, #3]
 455:../drivers/fsl_uart.c ****     base->C3 &= ~(mask >> 16);
 1356              		.loc 4 455 14
 1357 0040 7B68     		ldr	r3, [r7, #4]
 1358 0042 9B79     		ldrb	r3, [r3, #6]
 1359 0044 DBB2     		uxtb	r3, r3
 1360              		.loc 4 455 24
 1361 0046 3A68     		ldr	r2, [r7]
 1362 0048 120C     		lsrs	r2, r2, #16
 1363              		.loc 4 455 14
 1364 004a D2B2     		uxtb	r2, r2
 1365 004c D243     		mvns	r2, r2
 1366 004e D2B2     		uxtb	r2, r2
 1367 0050 1340     		ands	r3, r2
 1368 0052 DAB2     		uxtb	r2, r3
 1369 0054 7B68     		ldr	r3, [r7, #4]
 1370 0056 9A71     		strb	r2, [r3, #6]
 456:../drivers/fsl_uart.c **** 
 457:../drivers/fsl_uart.c **** #if defined(FSL_FEATURE_UART_HAS_FIFO) && FSL_FEATURE_UART_HAS_FIFO
 458:../drivers/fsl_uart.c ****     base->CFIFO &= ~(mask >> 24);
 459:../drivers/fsl_uart.c **** #endif
 460:../drivers/fsl_uart.c **** }
 1371              		.loc 4 460 1
 1372 0058 C046     		nop
 1373 005a BD46     		mov	sp, r7
 1374 005c 02B0     		add	sp, sp, #8
 1375              		@ sp needed
 1376 005e 80BD     		pop	{r7, pc}
 1377              	.L71:
 1378              		.align	2
 1379              	.L70:
 1380 0060 C0F00F00 		.word	1044672
 1381              		.cfi_endproc
 1382              	.LFE71:
 1384              		.section	.text.UART_GetEnabledInterrupts,"ax",%progbits
 1385              		.align	1
 1386              		.global	UART_GetEnabledInterrupts
 1387              		.syntax unified
 1388              		.code	16
 1389              		.thumb_func
 1390              		.fpu softvfp
 1392              	UART_GetEnabledInterrupts:
 1393              	.LFB72:
 461:../drivers/fsl_uart.c **** 
 462:../drivers/fsl_uart.c **** uint32_t UART_GetEnabledInterrupts(UART_Type *base)
 463:../drivers/fsl_uart.c **** {
 1394              		.loc 4 463 1
 1395              		.cfi_startproc
 1396              		@ args = 0, pretend = 0, frame = 16
 1397              		@ frame_needed = 1, uses_anonymous_args = 0
 1398 0000 80B5     		push	{r7, lr}
 1399              		.cfi_def_cfa_offset 8
 1400              		.cfi_offset 7, -8
 1401              		.cfi_offset 14, -4
 1402 0002 84B0     		sub	sp, sp, #16
 1403              		.cfi_def_cfa_offset 24
 1404 0004 00AF     		add	r7, sp, #0
 1405              		.cfi_def_cfa_register 7
 1406 0006 7860     		str	r0, [r7, #4]
 464:../drivers/fsl_uart.c ****     uint32_t temp;
 465:../drivers/fsl_uart.c **** 
 466:../drivers/fsl_uart.c ****     temp = base->BDH | ((uint32_t)(base->C2) << 8) | ((uint32_t)(base->C3) << 16);
 1407              		.loc 4 466 16
 1408 0008 7B68     		ldr	r3, [r7, #4]
 1409 000a 1B78     		ldrb	r3, [r3]
 1410 000c DBB2     		uxtb	r3, r3
 1411 000e 1A00     		movs	r2, r3
 1412              		.loc 4 466 40
 1413 0010 7B68     		ldr	r3, [r7, #4]
 1414 0012 DB78     		ldrb	r3, [r3, #3]
 1415 0014 DBB2     		uxtb	r3, r3
 1416              		.loc 4 466 46
 1417 0016 1B02     		lsls	r3, r3, #8
 1418              		.loc 4 466 22
 1419 0018 1A43     		orrs	r2, r3
 1420              		.loc 4 466 70
 1421 001a 7B68     		ldr	r3, [r7, #4]
 1422 001c 9B79     		ldrb	r3, [r3, #6]
 1423 001e DBB2     		uxtb	r3, r3
 1424              		.loc 4 466 76
 1425 0020 1B04     		lsls	r3, r3, #16
 1426              		.loc 4 466 10
 1427 0022 1343     		orrs	r3, r2
 1428 0024 FB60     		str	r3, [r7, #12]
 467:../drivers/fsl_uart.c **** 
 468:../drivers/fsl_uart.c **** #if defined(FSL_FEATURE_UART_HAS_FIFO) && FSL_FEATURE_UART_HAS_FIFO
 469:../drivers/fsl_uart.c ****     temp |= ((uint32_t)(base->CFIFO) << 24);
 470:../drivers/fsl_uart.c **** #endif
 471:../drivers/fsl_uart.c **** 
 472:../drivers/fsl_uart.c ****     return temp & kUART_AllInterruptsEnable;
 1429              		.loc 4 472 17
 1430 0026 FB68     		ldr	r3, [r7, #12]
 1431 0028 024A     		ldr	r2, .L74
 1432 002a 1340     		ands	r3, r2
 473:../drivers/fsl_uart.c **** }
 1433              		.loc 4 473 1
 1434 002c 1800     		movs	r0, r3
 1435 002e BD46     		mov	sp, r7
 1436 0030 04B0     		add	sp, sp, #16
 1437              		@ sp needed
 1438 0032 80BD     		pop	{r7, pc}
 1439              	.L75:
 1440              		.align	2
 1441              	.L74:
 1442 0034 C0F00F00 		.word	1044672
 1443              		.cfi_endproc
 1444              	.LFE72:
 1446              		.section	.text.UART_GetStatusFlags,"ax",%progbits
 1447              		.align	1
 1448              		.global	UART_GetStatusFlags
 1449              		.syntax unified
 1450              		.code	16
 1451              		.thumb_func
 1452              		.fpu softvfp
 1454              	UART_GetStatusFlags:
 1455              	.LFB73:
 474:../drivers/fsl_uart.c **** 
 475:../drivers/fsl_uart.c **** uint32_t UART_GetStatusFlags(UART_Type *base)
 476:../drivers/fsl_uart.c **** {
 1456              		.loc 4 476 1
 1457              		.cfi_startproc
 1458              		@ args = 0, pretend = 0, frame = 16
 1459              		@ frame_needed = 1, uses_anonymous_args = 0
 1460 0000 80B5     		push	{r7, lr}
 1461              		.cfi_def_cfa_offset 8
 1462              		.cfi_offset 7, -8
 1463              		.cfi_offset 14, -4
 1464 0002 84B0     		sub	sp, sp, #16
 1465              		.cfi_def_cfa_offset 24
 1466 0004 00AF     		add	r7, sp, #0
 1467              		.cfi_def_cfa_register 7
 1468 0006 7860     		str	r0, [r7, #4]
 477:../drivers/fsl_uart.c ****     uint32_t status_flag;
 478:../drivers/fsl_uart.c **** 
 479:../drivers/fsl_uart.c ****     status_flag = base->S1 | ((uint32_t)(base->S2) << 8);
 1469              		.loc 4 479 23
 1470 0008 7B68     		ldr	r3, [r7, #4]
 1471 000a 1B79     		ldrb	r3, [r3, #4]
 1472 000c DBB2     		uxtb	r3, r3
 1473 000e 1A00     		movs	r2, r3
 1474              		.loc 4 479 46
 1475 0010 7B68     		ldr	r3, [r7, #4]
 1476 0012 5B79     		ldrb	r3, [r3, #5]
 1477 0014 DBB2     		uxtb	r3, r3
 1478              		.loc 4 479 52
 1479 0016 1B02     		lsls	r3, r3, #8
 1480              		.loc 4 479 17
 1481 0018 1343     		orrs	r3, r2
 1482 001a FB60     		str	r3, [r7, #12]
 480:../drivers/fsl_uart.c **** 
 481:../drivers/fsl_uart.c **** #if defined(FSL_FEATURE_UART_HAS_EXTENDED_DATA_REGISTER_FLAGS) && FSL_FEATURE_UART_HAS_EXTENDED_DAT
 482:../drivers/fsl_uart.c ****     status_flag |= ((uint32_t)(base->ED) << 16);
 483:../drivers/fsl_uart.c **** #endif
 484:../drivers/fsl_uart.c **** 
 485:../drivers/fsl_uart.c **** #if defined(FSL_FEATURE_UART_HAS_FIFO) && FSL_FEATURE_UART_HAS_FIFO
 486:../drivers/fsl_uart.c ****     status_flag |= ((uint32_t)(base->SFIFO) << 24);
 487:../drivers/fsl_uart.c **** #endif
 488:../drivers/fsl_uart.c **** 
 489:../drivers/fsl_uart.c ****     return status_flag;
 1483              		.loc 4 489 12
 1484 001c FB68     		ldr	r3, [r7, #12]
 490:../drivers/fsl_uart.c **** }
 1485              		.loc 4 490 1
 1486 001e 1800     		movs	r0, r3
 1487 0020 BD46     		mov	sp, r7
 1488 0022 04B0     		add	sp, sp, #16
 1489              		@ sp needed
 1490 0024 80BD     		pop	{r7, pc}
 1491              		.cfi_endproc
 1492              	.LFE73:
 1494              		.section	.text.UART_ClearStatusFlags,"ax",%progbits
 1495              		.align	1
 1496              		.global	UART_ClearStatusFlags
 1497              		.syntax unified
 1498              		.code	16
 1499              		.thumb_func
 1500              		.fpu softvfp
 1502              	UART_ClearStatusFlags:
 1503              	.LFB74:
 491:../drivers/fsl_uart.c **** 
 492:../drivers/fsl_uart.c **** status_t UART_ClearStatusFlags(UART_Type *base, uint32_t mask)
 493:../drivers/fsl_uart.c **** {
 1504              		.loc 4 493 1
 1505              		.cfi_startproc
 1506              		@ args = 0, pretend = 0, frame = 16
 1507              		@ frame_needed = 1, uses_anonymous_args = 0
 1508 0000 80B5     		push	{r7, lr}
 1509              		.cfi_def_cfa_offset 8
 1510              		.cfi_offset 7, -8
 1511              		.cfi_offset 14, -4
 1512 0002 84B0     		sub	sp, sp, #16
 1513              		.cfi_def_cfa_offset 24
 1514 0004 00AF     		add	r7, sp, #0
 1515              		.cfi_def_cfa_register 7
 1516 0006 7860     		str	r0, [r7, #4]
 1517 0008 3960     		str	r1, [r7]
 494:../drivers/fsl_uart.c ****     uint8_t reg = base->S2;
 1518              		.loc 4 494 13
 1519 000a 0B20     		movs	r0, #11
 1520 000c 3B18     		adds	r3, r7, r0
 1521 000e 7A68     		ldr	r2, [r7, #4]
 1522 0010 5279     		ldrb	r2, [r2, #5]
 1523 0012 1A70     		strb	r2, [r3]
 495:../drivers/fsl_uart.c ****     status_t status;
 496:../drivers/fsl_uart.c **** 
 497:../drivers/fsl_uart.c **** #if defined(FSL_FEATURE_UART_HAS_LIN_BREAK_DETECT) && FSL_FEATURE_UART_HAS_LIN_BREAK_DETECT
 498:../drivers/fsl_uart.c ****     reg &= ~(UART_S2_RXEDGIF_MASK | UART_S2_LBKDIF_MASK);
 1524              		.loc 4 498 9
 1525 0014 3B18     		adds	r3, r7, r0
 1526 0016 3A18     		adds	r2, r7, r0
 1527 0018 1278     		ldrb	r2, [r2]
 1528 001a 3F21     		movs	r1, #63
 1529 001c 0A40     		ands	r2, r1
 1530 001e 1A70     		strb	r2, [r3]
 499:../drivers/fsl_uart.c **** #else
 500:../drivers/fsl_uart.c ****     reg &= ~UART_S2_RXEDGIF_MASK;
 501:../drivers/fsl_uart.c **** #endif
 502:../drivers/fsl_uart.c **** 
 503:../drivers/fsl_uart.c ****     base->S2 = reg | (uint8_t)(mask >> 8);
 1531              		.loc 4 503 37
 1532 0020 3B68     		ldr	r3, [r7]
 1533 0022 1B0A     		lsrs	r3, r3, #8
 1534              		.loc 4 503 22
 1535 0024 DAB2     		uxtb	r2, r3
 1536              		.loc 4 503 14
 1537 0026 3B18     		adds	r3, r7, r0
 1538 0028 1B78     		ldrb	r3, [r3]
 1539 002a 1343     		orrs	r3, r2
 1540 002c DAB2     		uxtb	r2, r3
 1541 002e 7B68     		ldr	r3, [r7, #4]
 1542 0030 5A71     		strb	r2, [r3, #5]
 504:../drivers/fsl_uart.c **** 
 505:../drivers/fsl_uart.c **** #if defined(FSL_FEATURE_UART_HAS_FIFO) && FSL_FEATURE_UART_HAS_FIFO
 506:../drivers/fsl_uart.c ****     base->SFIFO = (uint8_t)(mask >> 24);
 507:../drivers/fsl_uart.c **** #endif
 508:../drivers/fsl_uart.c **** 
 509:../drivers/fsl_uart.c ****     if (mask & (kUART_IdleLineFlag | kUART_NoiseErrorFlag | kUART_FramingErrorFlag | kUART_ParityEr
 1543              		.loc 4 509 14
 1544 0032 3B68     		ldr	r3, [r7]
 1545 0034 1722     		movs	r2, #23
 1546 0036 1340     		ands	r3, r2
 1547              		.loc 4 509 8
 1548 0038 03D0     		beq	.L79
 510:../drivers/fsl_uart.c ****     {
 511:../drivers/fsl_uart.c ****         /* Read base->D to clear the flags. */
 512:../drivers/fsl_uart.c ****         (void)base->S1;
 1549              		.loc 4 512 9
 1550 003a 7B68     		ldr	r3, [r7, #4]
 1551 003c 1B79     		ldrb	r3, [r3, #4]
 513:../drivers/fsl_uart.c ****         (void)base->D;
 1552              		.loc 4 513 9
 1553 003e 7B68     		ldr	r3, [r7, #4]
 1554 0040 DB79     		ldrb	r3, [r3, #7]
 1555              	.L79:
 514:../drivers/fsl_uart.c ****     }
 515:../drivers/fsl_uart.c **** 
 516:../drivers/fsl_uart.c ****     if (mask & kUART_RxOverrunFlag)
 1556              		.loc 4 516 14
 1557 0042 3B68     		ldr	r3, [r7]
 1558 0044 0822     		movs	r2, #8
 1559 0046 1340     		ands	r3, r2
 1560              		.loc 4 516 8
 1561 0048 03D0     		beq	.L80
 517:../drivers/fsl_uart.c ****     {
 518:../drivers/fsl_uart.c ****         /* Read base->D to clear the flags and Flush all data in FIFO. */
 519:../drivers/fsl_uart.c ****         (void)base->S1;
 1562              		.loc 4 519 9
 1563 004a 7B68     		ldr	r3, [r7, #4]
 1564 004c 1B79     		ldrb	r3, [r3, #4]
 520:../drivers/fsl_uart.c ****         (void)base->D;
 1565              		.loc 4 520 9
 1566 004e 7B68     		ldr	r3, [r7, #4]
 1567 0050 DB79     		ldrb	r3, [r3, #7]
 1568              	.L80:
 521:../drivers/fsl_uart.c **** #if defined(FSL_FEATURE_UART_HAS_FIFO) && FSL_FEATURE_UART_HAS_FIFO
 522:../drivers/fsl_uart.c ****         /* Flush FIFO date, otherwise FIFO pointer will be in unknown state. */
 523:../drivers/fsl_uart.c ****         base->CFIFO |= UART_CFIFO_RXFLUSH_MASK;
 524:../drivers/fsl_uart.c **** #endif
 525:../drivers/fsl_uart.c ****     }
 526:../drivers/fsl_uart.c **** 
 527:../drivers/fsl_uart.c ****     /* If some flags still pending. */
 528:../drivers/fsl_uart.c ****     if (mask & UART_GetStatusFlags(base))
 1569              		.loc 4 528 16
 1570 0052 7B68     		ldr	r3, [r7, #4]
 1571 0054 1800     		movs	r0, r3
 1572 0056 FFF7FEFF 		bl	UART_GetStatusFlags
 1573 005a 0200     		movs	r2, r0
 1574              		.loc 4 528 14
 1575 005c 3B68     		ldr	r3, [r7]
 1576 005e 1340     		ands	r3, r2
 1577              		.loc 4 528 8
 1578 0060 02D0     		beq	.L81
 529:../drivers/fsl_uart.c ****     {
 530:../drivers/fsl_uart.c ****         /* Some flags can only clear or set by the hardware itself, these flags are: kUART_TxDataRe
 531:../drivers/fsl_uart.c ****         kUART_TransmissionCompleteFlag, kUART_RxDataRegFullFlag, kUART_RxActiveFlag, kUART_NoiseErr
 532:../drivers/fsl_uart.c ****         kUART_ParityErrorInRxDataRegFlag, kUART_TxFifoEmptyFlag, kUART_RxFifoEmptyFlag. */
 533:../drivers/fsl_uart.c ****         status = kStatus_UART_FlagCannotClearManually;
 1579              		.loc 4 533 16
 1580 0062 054B     		ldr	r3, .L84
 1581 0064 FB60     		str	r3, [r7, #12]
 1582 0066 01E0     		b	.L82
 1583              	.L81:
 534:../drivers/fsl_uart.c ****     }
 535:../drivers/fsl_uart.c ****     else
 536:../drivers/fsl_uart.c ****     {
 537:../drivers/fsl_uart.c ****         status = kStatus_Success;
 1584              		.loc 4 537 16
 1585 0068 0023     		movs	r3, #0
 1586 006a FB60     		str	r3, [r7, #12]
 1587              	.L82:
 538:../drivers/fsl_uart.c ****     }
 539:../drivers/fsl_uart.c **** 
 540:../drivers/fsl_uart.c ****     return status;
 1588              		.loc 4 540 12
 1589 006c FB68     		ldr	r3, [r7, #12]
 541:../drivers/fsl_uart.c **** }
 1590              		.loc 4 541 1
 1591 006e 1800     		movs	r0, r3
 1592 0070 BD46     		mov	sp, r7
 1593 0072 04B0     		add	sp, sp, #16
 1594              		@ sp needed
 1595 0074 80BD     		pop	{r7, pc}
 1596              	.L85:
 1597 0076 C046     		.align	2
 1598              	.L84:
 1599 0078 EE030000 		.word	1006
 1600              		.cfi_endproc
 1601              	.LFE74:
 1603              		.section	.text.UART_WriteBlocking,"ax",%progbits
 1604              		.align	1
 1605              		.global	UART_WriteBlocking
 1606              		.syntax unified
 1607              		.code	16
 1608              		.thumb_func
 1609              		.fpu softvfp
 1611              	UART_WriteBlocking:
 1612              	.LFB75:
 542:../drivers/fsl_uart.c **** 
 543:../drivers/fsl_uart.c **** void UART_WriteBlocking(UART_Type *base, const uint8_t *data, size_t length)
 544:../drivers/fsl_uart.c **** {
 1613              		.loc 4 544 1
 1614              		.cfi_startproc
 1615              		@ args = 0, pretend = 0, frame = 16
 1616              		@ frame_needed = 1, uses_anonymous_args = 0
 1617 0000 80B5     		push	{r7, lr}
 1618              		.cfi_def_cfa_offset 8
 1619              		.cfi_offset 7, -8
 1620              		.cfi_offset 14, -4
 1621 0002 84B0     		sub	sp, sp, #16
 1622              		.cfi_def_cfa_offset 24
 1623 0004 00AF     		add	r7, sp, #0
 1624              		.cfi_def_cfa_register 7
 1625 0006 F860     		str	r0, [r7, #12]
 1626 0008 B960     		str	r1, [r7, #8]
 1627 000a 7A60     		str	r2, [r7, #4]
 545:../drivers/fsl_uart.c ****     /* This API can only ensure that the data is written into the data buffer but can't
 546:../drivers/fsl_uart.c ****     ensure all data in the data buffer are sent into the transmit shift buffer. */
 547:../drivers/fsl_uart.c ****     while (length--)
 1628              		.loc 4 547 11
 1629 000c 0CE0     		b	.L87
 1630              	.L89:
 548:../drivers/fsl_uart.c ****     {
 549:../drivers/fsl_uart.c ****         while (!(base->S1 & UART_S1_TDRE_MASK))
 1631              		.loc 4 549 15
 1632 000e C046     		nop
 1633              	.L88:
 1634              		.loc 4 549 22 discriminator 1
 1635 0010 FB68     		ldr	r3, [r7, #12]
 1636 0012 1B79     		ldrb	r3, [r3, #4]
 1637 0014 DBB2     		uxtb	r3, r3
 1638              		.loc 4 549 16 discriminator 1
 1639 0016 5BB2     		sxtb	r3, r3
 1640              		.loc 4 549 15 discriminator 1
 1641 0018 002B     		cmp	r3, #0
 1642 001a F9DA     		bge	.L88
 550:../drivers/fsl_uart.c ****         {
 551:../drivers/fsl_uart.c ****         }
 552:../drivers/fsl_uart.c ****         base->D = *(data++);
 1643              		.loc 4 552 25
 1644 001c BB68     		ldr	r3, [r7, #8]
 1645 001e 5A1C     		adds	r2, r3, #1
 1646 0020 BA60     		str	r2, [r7, #8]
 1647              		.loc 4 552 19
 1648 0022 1A78     		ldrb	r2, [r3]
 1649              		.loc 4 552 17
 1650 0024 FB68     		ldr	r3, [r7, #12]
 1651 0026 DA71     		strb	r2, [r3, #7]
 1652              	.L87:
 547:../drivers/fsl_uart.c ****     {
 1653              		.loc 4 547 18
 1654 0028 7B68     		ldr	r3, [r7, #4]
 1655 002a 5A1E     		subs	r2, r3, #1
 1656 002c 7A60     		str	r2, [r7, #4]
 547:../drivers/fsl_uart.c ****     {
 1657              		.loc 4 547 11
 1658 002e 002B     		cmp	r3, #0
 1659 0030 EDD1     		bne	.L89
 553:../drivers/fsl_uart.c ****     }
 554:../drivers/fsl_uart.c **** }
 1660              		.loc 4 554 1
 1661 0032 C046     		nop
 1662 0034 C046     		nop
 1663 0036 BD46     		mov	sp, r7
 1664 0038 04B0     		add	sp, sp, #16
 1665              		@ sp needed
 1666 003a 80BD     		pop	{r7, pc}
 1667              		.cfi_endproc
 1668              	.LFE75:
 1670              		.section	.rodata.UART_WriteNonBlocking.str1.4,"aMS",%progbits,1
 1671              		.align	2
 1672              	.LC17:
 1673 0000 2E66736C 		.ascii	".fsl_uart.c:558 : data\000"
 1673      5F756172 
 1673      742E633A 
 1673      35353820 
 1673      3A206461 
 1674              		.section	.text.UART_WriteNonBlocking,"ax",%progbits
 1675              		.align	1
 1676              		.syntax unified
 1677              		.code	16
 1678              		.thumb_func
 1679              		.fpu softvfp
 1681              	UART_WriteNonBlocking:
 1682              	.LFB76:
 555:../drivers/fsl_uart.c **** 
 556:../drivers/fsl_uart.c **** static void UART_WriteNonBlocking(UART_Type *base, const uint8_t *data, size_t length)
 557:../drivers/fsl_uart.c **** {
 1683              		.loc 4 557 1
 1684              		.cfi_startproc
 1685              		@ args = 0, pretend = 0, frame = 24
 1686              		@ frame_needed = 1, uses_anonymous_args = 0
 1687 0000 80B5     		push	{r7, lr}
 1688              		.cfi_def_cfa_offset 8
 1689              		.cfi_offset 7, -8
 1690              		.cfi_offset 14, -4
 1691 0002 86B0     		sub	sp, sp, #24
 1692              		.cfi_def_cfa_offset 32
 1693 0004 00AF     		add	r7, sp, #0
 1694              		.cfi_def_cfa_register 7
 1695 0006 F860     		str	r0, [r7, #12]
 1696 0008 B960     		str	r1, [r7, #8]
 1697 000a 7A60     		str	r2, [r7, #4]
 558:../drivers/fsl_uart.c ****     assert(data);
 1698              		.loc 4 558 5
 1699 000c BB68     		ldr	r3, [r7, #8]
 1700 000e 002B     		cmp	r3, #0
 1701 0010 03D1     		bne	.L91
 1702              		.loc 4 558 5 is_stmt 0 discriminator 1
 1703 0012 0C4B     		ldr	r3, .L94
 1704 0014 1800     		movs	r0, r3
 1705 0016 FFF7FEFF 		bl	__assertion_failed
 1706              	.L91:
 559:../drivers/fsl_uart.c **** 
 560:../drivers/fsl_uart.c ****     size_t i;
 561:../drivers/fsl_uart.c **** 
 562:../drivers/fsl_uart.c ****     /* The Non Blocking write data API assume user have ensured there is enough space in
 563:../drivers/fsl_uart.c ****     peripheral to write. */
 564:../drivers/fsl_uart.c ****     for (i = 0; i < length; i++)
 1707              		.loc 4 564 12 is_stmt 1
 1708 001a 0023     		movs	r3, #0
 1709 001c 7B61     		str	r3, [r7, #20]
 1710              		.loc 4 564 5
 1711 001e 08E0     		b	.L92
 1712              	.L93:
 565:../drivers/fsl_uart.c ****     {
 566:../drivers/fsl_uart.c ****         base->D = data[i];
 1713              		.loc 4 566 23 discriminator 3
 1714 0020 BA68     		ldr	r2, [r7, #8]
 1715 0022 7B69     		ldr	r3, [r7, #20]
 1716 0024 D318     		adds	r3, r2, r3
 1717 0026 1A78     		ldrb	r2, [r3]
 1718              		.loc 4 566 17 discriminator 3
 1719 0028 FB68     		ldr	r3, [r7, #12]
 1720 002a DA71     		strb	r2, [r3, #7]
 564:../drivers/fsl_uart.c ****     {
 1721              		.loc 4 564 30 discriminator 3
 1722 002c 7B69     		ldr	r3, [r7, #20]
 1723 002e 0133     		adds	r3, r3, #1
 1724 0030 7B61     		str	r3, [r7, #20]
 1725              	.L92:
 564:../drivers/fsl_uart.c ****     {
 1726              		.loc 4 564 5 discriminator 1
 1727 0032 7A69     		ldr	r2, [r7, #20]
 1728 0034 7B68     		ldr	r3, [r7, #4]
 1729 0036 9A42     		cmp	r2, r3
 1730 0038 F2D3     		bcc	.L93
 567:../drivers/fsl_uart.c ****     }
 568:../drivers/fsl_uart.c **** }
 1731              		.loc 4 568 1
 1732 003a C046     		nop
 1733 003c C046     		nop
 1734 003e BD46     		mov	sp, r7
 1735 0040 06B0     		add	sp, sp, #24
 1736              		@ sp needed
 1737 0042 80BD     		pop	{r7, pc}
 1738              	.L95:
 1739              		.align	2
 1740              	.L94:
 1741 0044 00000000 		.word	.LC17
 1742              		.cfi_endproc
 1743              	.LFE76:
 1745              		.section	.rodata.UART_ReadBlocking.str1.4,"aMS",%progbits,1
 1746              		.align	2
 1747              	.LC19:
 1748 0000 2E66736C 		.ascii	".fsl_uart.c:572 : data\000"
 1748      5F756172 
 1748      742E633A 
 1748      35373220 
 1748      3A206461 
 1749              		.section	.text.UART_ReadBlocking,"ax",%progbits
 1750              		.align	1
 1751              		.global	UART_ReadBlocking
 1752              		.syntax unified
 1753              		.code	16
 1754              		.thumb_func
 1755              		.fpu softvfp
 1757              	UART_ReadBlocking:
 1758              	.LFB77:
 569:../drivers/fsl_uart.c **** 
 570:../drivers/fsl_uart.c **** status_t UART_ReadBlocking(UART_Type *base, uint8_t *data, size_t length)
 571:../drivers/fsl_uart.c **** {
 1759              		.loc 4 571 1
 1760              		.cfi_startproc
 1761              		@ args = 0, pretend = 0, frame = 24
 1762              		@ frame_needed = 1, uses_anonymous_args = 0
 1763 0000 80B5     		push	{r7, lr}
 1764              		.cfi_def_cfa_offset 8
 1765              		.cfi_offset 7, -8
 1766              		.cfi_offset 14, -4
 1767 0002 86B0     		sub	sp, sp, #24
 1768              		.cfi_def_cfa_offset 32
 1769 0004 00AF     		add	r7, sp, #0
 1770              		.cfi_def_cfa_register 7
 1771 0006 F860     		str	r0, [r7, #12]
 1772 0008 B960     		str	r1, [r7, #8]
 1773 000a 7A60     		str	r2, [r7, #4]
 572:../drivers/fsl_uart.c ****     assert(data);
 1774              		.loc 4 572 5
 1775 000c BB68     		ldr	r3, [r7, #8]
 1776 000e 002B     		cmp	r3, #0
 1777 0010 30D1     		bne	.L98
 1778              		.loc 4 572 5 is_stmt 0 discriminator 1
 1779 0012 1D4B     		ldr	r3, .L106
 1780 0014 1800     		movs	r0, r3
 1781 0016 FFF7FEFF 		bl	__assertion_failed
 1782              	.L104:
 573:../drivers/fsl_uart.c **** 
 574:../drivers/fsl_uart.c ****     uint32_t statusFlag;
 575:../drivers/fsl_uart.c **** 
 576:../drivers/fsl_uart.c ****     while (length--)
 577:../drivers/fsl_uart.c ****     {
 578:../drivers/fsl_uart.c **** #if defined(FSL_FEATURE_UART_HAS_FIFO) && FSL_FEATURE_UART_HAS_FIFO
 579:../drivers/fsl_uart.c ****         while (!base->RCFIFO)
 580:../drivers/fsl_uart.c **** #else
 581:../drivers/fsl_uart.c ****         while (!(base->S1 & UART_S1_RDRF_MASK))
 582:../drivers/fsl_uart.c **** #endif
 583:../drivers/fsl_uart.c ****         {
 584:../drivers/fsl_uart.c ****             statusFlag = UART_GetStatusFlags(base);
 1783              		.loc 4 584 26 is_stmt 1
 1784 001a FB68     		ldr	r3, [r7, #12]
 1785 001c 1800     		movs	r0, r3
 1786 001e FFF7FEFF 		bl	UART_GetStatusFlags
 1787 0022 0300     		movs	r3, r0
 1788 0024 7B61     		str	r3, [r7, #20]
 585:../drivers/fsl_uart.c **** 
 586:../drivers/fsl_uart.c ****             if (statusFlag & kUART_RxOverrunFlag)
 1789              		.loc 4 586 28
 1790 0026 7B69     		ldr	r3, [r7, #20]
 1791 0028 0822     		movs	r2, #8
 1792 002a 1340     		ands	r3, r2
 1793              		.loc 4 586 16
 1794 002c 01D0     		beq	.L100
