
/home/arpit/studies/pes/Blinkenlights/DEBUG_/source/Blinkenlights.o:     file format elf32-littlearm
/home/arpit/studies/pes/Blinkenlights/DEBUG_/source/Blinkenlights.o
architecture: armv6s-m, flags 0x00000011:
HAS_RELOC, HAS_SYMS
start address 0x00000000
private flags = 5000000: [Version5 EABI]

Sections:
Idx Name          Size      VMA       LMA       File off  Algn
  0 .group        0000000c  00000000  00000000  00000034  2**2
                  CONTENTS, READONLY, GROUP, LINK_ONCE_DISCARD
  1 .group        0000000c  00000000  00000000  00000040  2**2
                  CONTENTS, READONLY, GROUP, LINK_ONCE_DISCARD
  2 .group        0000000c  00000000  00000000  0000004c  2**2
                  CONTENTS, READONLY, GROUP, LINK_ONCE_DISCARD
  3 .group        0000000c  00000000  00000000  00000058  2**2
                  CONTENTS, READONLY, GROUP, LINK_ONCE_DISCARD
  4 .group        0000000c  00000000  00000000  00000064  2**2
                  CONTENTS, READONLY, GROUP, LINK_ONCE_DISCARD
  5 .group        0000000c  00000000  00000000  00000070  2**2
                  CONTENTS, READONLY, GROUP, LINK_ONCE_DISCARD
  6 .group        0000000c  00000000  00000000  0000007c  2**2
                  CONTENTS, READONLY, GROUP, LINK_ONCE_DISCARD
  7 .group        0000000c  00000000  00000000  00000088  2**2
                  CONTENTS, READONLY, GROUP, LINK_ONCE_DISCARD
  8 .group        0000000c  00000000  00000000  00000094  2**2
                  CONTENTS, READONLY, GROUP, LINK_ONCE_DISCARD
  9 .group        0000000c  00000000  00000000  000000a0  2**2
                  CONTENTS, READONLY, GROUP, LINK_ONCE_DISCARD
 10 .group        0000000c  00000000  00000000  000000ac  2**2
                  CONTENTS, READONLY, GROUP, LINK_ONCE_DISCARD
 11 .group        0000000c  00000000  00000000  000000b8  2**2
                  CONTENTS, READONLY, GROUP, LINK_ONCE_DISCARD
 12 .group        0000000c  00000000  00000000  000000c4  2**2
                  CONTENTS, READONLY, GROUP, LINK_ONCE_DISCARD
 13 .group        0000000c  00000000  00000000  000000d0  2**2
                  CONTENTS, READONLY, GROUP, LINK_ONCE_DISCARD
 14 .group        0000000c  00000000  00000000  000000dc  2**2
                  CONTENTS, READONLY, GROUP, LINK_ONCE_DISCARD
 15 .group        0000000c  00000000  00000000  000000e8  2**2
                  CONTENTS, READONLY, GROUP, LINK_ONCE_DISCARD
 16 .group        0000000c  00000000  00000000  000000f4  2**2
                  CONTENTS, READONLY, GROUP, LINK_ONCE_DISCARD
 17 .group        0000000c  00000000  00000000  00000100  2**2
                  CONTENTS, READONLY, GROUP, LINK_ONCE_DISCARD
 18 .group        0000000c  00000000  00000000  0000010c  2**2
                  CONTENTS, READONLY, GROUP, LINK_ONCE_DISCARD
 19 .group        0000000c  00000000  00000000  00000118  2**2
                  CONTENTS, READONLY, GROUP, LINK_ONCE_DISCARD
 20 .group        0000000c  00000000  00000000  00000124  2**2
                  CONTENTS, READONLY, GROUP, LINK_ONCE_DISCARD
 21 .group        0000000c  00000000  00000000  00000130  2**2
                  CONTENTS, READONLY, GROUP, LINK_ONCE_DISCARD
 22 .group        0000000c  00000000  00000000  0000013c  2**2
                  CONTENTS, READONLY, GROUP, LINK_ONCE_DISCARD
 23 .group        0000000c  00000000  00000000  00000148  2**2
                  CONTENTS, READONLY, GROUP, LINK_ONCE_DISCARD
 24 .group        0000000c  00000000  00000000  00000154  2**2
                  CONTENTS, READONLY, GROUP, LINK_ONCE_DISCARD
 25 .group        0000000c  00000000  00000000  00000160  2**2
                  CONTENTS, READONLY, GROUP, LINK_ONCE_DISCARD
 26 .text         00000000  00000000  00000000  0000016c  2**1
                  CONTENTS, ALLOC, LOAD, READONLY, CODE
 27 .data         00000000  00000000  00000000  0000016c  2**0
                  CONTENTS, ALLOC, LOAD, DATA
 28 .bss          00000000  00000000  00000000  0000016c  2**0
                  ALLOC
 29 .rodata.delayTimes 00000010  00000000  00000000  0000016c  2**2
                  CONTENTS, ALLOC, LOAD, READONLY, DATA
 30 .rodata.delayLoopUp 00000010  00000000  00000000  0000017c  2**2
                  CONTENTS, ALLOC, LOAD, READONLY, DATA
 31 .rodata.delay100MSECLoopUp 00000010  00000000  00000000  0000018c  2**2
                  CONTENTS, ALLOC, LOAD, READONLY, DATA
 32 .bss.next_state 00000001  00000000  00000000  0000019c  2**0
                  ALLOC
 33 .rodata.main.str1.4 000000ac  00000000  00000000  0000019c  2**2
                  CONTENTS, ALLOC, LOAD, READONLY, DATA
 34 .rodata       00000003  00000000  00000000  00000248  2**2
                  CONTENTS, ALLOC, LOAD, READONLY, DATA
 35 .text.main    00000130  00000000  00000000  0000024c  2**2
                  CONTENTS, ALLOC, LOAD, RELOC, READONLY, CODE
 36 .debug_info   00000752  00000000  00000000  0000037c  2**0
                  CONTENTS, RELOC, READONLY, DEBUGGING
 37 .debug_abbrev 00000183  00000000  00000000  00000ace  2**0
                  CONTENTS, READONLY, DEBUGGING
 38 .debug_aranges 00000020  00000000  00000000  00000c51  2**0
                  CONTENTS, RELOC, READONLY, DEBUGGING
 39 .debug_ranges 00000010  00000000  00000000  00000c71  2**0
                  CONTENTS, RELOC, READONLY, DEBUGGING
 40 .debug_macro  00000179  00000000  00000000  00000c81  2**0
                  CONTENTS, RELOC, READONLY, DEBUGGING
 41 .debug_macro  00000ac0  00000000  00000000  00000dfa  2**0
                  CONTENTS, RELOC, READONLY, DEBUGGING
 42 .debug_macro  00000010  00000000  00000000  000018ba  2**0
                  CONTENTS, RELOC, READONLY, DEBUGGING
 43 .debug_macro  0000012e  00000000  00000000  000018ca  2**0
                  CONTENTS, RELOC, READONLY, DEBUGGING
 44 .debug_macro  000000d8  00000000  00000000  000019f8  2**0
                  CONTENTS, RELOC, READONLY, DEBUGGING
 45 .debug_macro  00000016  00000000  00000000  00001ad0  2**0
                  CONTENTS, RELOC, READONLY, DEBUGGING
 46 .debug_macro  00000022  00000000  00000000  00001ae6  2**0
                  CONTENTS, RELOC, READONLY, DEBUGGING
 47 .debug_macro  000005b3  00000000  00000000  00001b08  2**0
                  CONTENTS, RELOC, READONLY, DEBUGGING
 48 .debug_macro  00000010  00000000  00000000  000020bb  2**0
                  CONTENTS, RELOC, READONLY, DEBUGGING
 49 .debug_macro  0000003f  00000000  00000000  000020cb  2**0
                  CONTENTS, RELOC, READONLY, DEBUGGING
 50 .debug_macro  0000003a  00000000  00000000  0000210a  2**0
                  CONTENTS, RELOC, READONLY, DEBUGGING
 51 .debug_macro  00000026  00000000  00000000  00002144  2**0
                  CONTENTS, RELOC, READONLY, DEBUGGING
 52 .debug_macro  00000329  00000000  00000000  0000216a  2**0
                  CONTENTS, RELOC, READONLY, DEBUGGING
 53 .debug_macro  00000030  00000000  00000000  00002493  2**0
                  CONTENTS, RELOC, READONLY, DEBUGGING
 54 .debug_macro  000051e2  00000000  00000000  000024c3  2**0
                  CONTENTS, RELOC, READONLY, DEBUGGING
 55 .debug_macro  00001352  00000000  00000000  000076a5  2**0
                  CONTENTS, RELOC, READONLY, DEBUGGING
 56 .debug_macro  0000003a  00000000  00000000  000089f7  2**0
                  CONTENTS, RELOC, READONLY, DEBUGGING
 57 .debug_macro  000000f4  00000000  00000000  00008a31  2**0
                  CONTENTS, RELOC, READONLY, DEBUGGING
 58 .debug_macro  00000035  00000000  00000000  00008b25  2**0
                  CONTENTS, RELOC, READONLY, DEBUGGING
 59 .debug_macro  00000016  00000000  00000000  00008b5a  2**0
                  CONTENTS, RELOC, READONLY, DEBUGGING
 60 .debug_macro  00000010  00000000  00000000  00008b70  2**0
                  CONTENTS, RELOC, READONLY, DEBUGGING
 61 .debug_macro  00000112  00000000  00000000  00008b80  2**0
                  CONTENTS, RELOC, READONLY, DEBUGGING
 62 .debug_macro  000000a6  00000000  00000000  00008c92  2**0
                  CONTENTS, RELOC, READONLY, DEBUGGING
 63 .debug_macro  00000034  00000000  00000000  00008d38  2**0
                  CONTENTS, RELOC, READONLY, DEBUGGING
 64 .debug_macro  00000022  00000000  00000000  00008d6c  2**0
                  CONTENTS, RELOC, READONLY, DEBUGGING
 65 .debug_macro  00000040  00000000  00000000  00008d8e  2**0
                  CONTENTS, RELOC, READONLY, DEBUGGING
 66 .debug_macro  00000010  00000000  00000000  00008dce  2**0
                  CONTENTS, RELOC, READONLY, DEBUGGING
 67 .debug_line   00000406  00000000  00000000  00008dde  2**0
                  CONTENTS, RELOC, READONLY, DEBUGGING
 68 .debug_str    000320df  00000000  00000000  000091e4  2**0
                  CONTENTS, READONLY, DEBUGGING
 69 .comment      0000007a  00000000  00000000  0003b2c3  2**0
                  CONTENTS, READONLY
 70 .debug_frame  00000030  00000000  00000000  0003b340  2**2
                  CONTENTS, RELOC, READONLY, DEBUGGING
 71 .ARM.attributes 0000002c  00000000  00000000  0003b370  2**0
                  CONTENTS, READONLY
SYMBOL TABLE:
00000000 l    df *ABS*	00000000 Blinkenlights.c
00000000 l    d  .text	00000000 .text
00000000 l    d  .data	00000000 .data
00000000 l    d  .bss	00000000 .bss
00000000 l    d  .rodata.delayTimes	00000000 .rodata.delayTimes
00000000 l     O .rodata.delayTimes	00000010 delayTimes
00000000 l    d  .rodata.delayLoopUp	00000000 .rodata.delayLoopUp
00000000 l     O .rodata.delayLoopUp	00000010 delayLoopUp
00000000 l    d  .rodata.delay100MSECLoopUp	00000000 .rodata.delay100MSECLoopUp
00000000 l     O .rodata.delay100MSECLoopUp	00000010 delay100MSECLoopUp
00000000 l    d  .bss.next_state	00000000 .bss.next_state
00000000 l     O .bss.next_state	00000001 next_state
00000000 l    d  .rodata.main.str1.4	00000000 .rodata.main.str1.4
00000000 l    d  .rodata	00000000 .rodata
00000000 l    d  .text.main	00000000 .text.main
00000000 l    d  .debug_info	00000000 .debug_info
00000000 l    d  .debug_abbrev	00000000 .debug_abbrev
00000000 l    d  .debug_aranges	00000000 .debug_aranges
00000000 l    d  .debug_ranges	00000000 .debug_ranges
00000000 l    d  .debug_macro	00000000 .debug_macro
00000000 l    d  .debug_line	00000000 .debug_line
00000000 l    d  .debug_str	00000000 .debug_str
00000000 l    d  .debug_macro	00000000 .debug_macro
00000000 l    d  .debug_macro	00000000 .debug_macro
00000000 l    d  .debug_macro	00000000 .debug_macro
00000000 l    d  .debug_macro	00000000 .debug_macro
00000000 l    d  .debug_macro	00000000 .debug_macro
00000000 l    d  .debug_macro	00000000 .debug_macro
00000000 l    d  .debug_macro	00000000 .debug_macro
00000000 l    d  .debug_macro	00000000 .debug_macro
00000000 l    d  .debug_macro	00000000 .debug_macro
00000000 l    d  .debug_macro	00000000 .debug_macro
00000000 l    d  .debug_macro	00000000 .debug_macro
00000000 l    d  .debug_macro	00000000 .debug_macro
00000000 l    d  .debug_macro	00000000 .debug_macro
00000000 l    d  .debug_macro	00000000 .debug_macro
00000000 l    d  .debug_macro	00000000 .debug_macro
00000000 l    d  .debug_macro	00000000 .debug_macro
00000000 l    d  .debug_macro	00000000 .debug_macro
00000000 l    d  .debug_macro	00000000 .debug_macro
00000000 l    d  .debug_macro	00000000 .debug_macro
00000000 l    d  .debug_macro	00000000 .debug_macro
00000000 l    d  .debug_macro	00000000 .debug_macro
00000000 l    d  .debug_macro	00000000 .debug_macro
00000000 l    d  .debug_macro	00000000 .debug_macro
00000000 l    d  .debug_macro	00000000 .debug_macro
00000000 l    d  .debug_macro	00000000 .debug_macro
00000000 l    d  .debug_macro	00000000 .debug_macro
00000000 l    d  .debug_frame	00000000 .debug_frame
00000000 l       .group	00000000 wm4.0.b17fa403cb9718989e7a4b461e73e1c9
00000000 l       .group	00000000 wm4.redlib_version.h.16.f905717e4b3a91dcbdbb631865150df4
00000000 l       .group	00000000 wm4.libconfigarm.h.19.34723c94cbd19598192aa6b1e87fca41
00000000 l       .group	00000000 wm4.stdio.h.45.f451916e772fb1711dab452062404594
00000000 l       .group	00000000 wm4.assert.h.39.e41bcb6e11bd7f1aaa7bbb5b609fe4b1
00000000 l       .group	00000000 wm4.stdbool.h.15.fddf1cb2402fd739d8e2516677869231
00000000 l       .group	00000000 wm4.stdint.h.31.58198de4ea930fb897655479091e17c7
00000000 l       .group	00000000 wm4.fsl_device_registers.h.32.0bd0fc1949c4d5ee8778d13f693b6d67
00000000 l       .group	00000000 wm4.MKL25Z4.h.103.6fa60f7365436a291410ac7ae38d8851
00000000 l       .group	00000000 wm4.core_cm0plus.h.42.7e68c73109133db28e6113a0ee252d6f
00000000 l       .group	00000000 wm4.cmsis_gcc.h.36.5bb14fd68ce7855540fcfe2d9305ae16
00000000 l       .group	00000000 wm4.core_cm0plus.h.175.8e2cbb335a2ae70828db295817e11b6e
00000000 l       .group	00000000 wm4.system_MKL25Z4.h.107.b43986f939b1bf0ee0f9aa04879788f4
00000000 l       .group	00000000 wm4.MKL25Z4.h.379.376a3f36380a1b2f1e4cdc95287bb342
00000000 l       .group	00000000 wm4.MKL25Z4_features.h.84.30fd6c6f11c9d2ffea2189829de10275
00000000 l       .group	00000000 wm4.fsl_common.h.55.f0a989f874fed9062f996a5c92215a0e
00000000 l       .group	00000000 wm4.fsl_clock.h.61.86ace3515ab77fa85db71e2d42e7d189
00000000 l       .group	00000000 wm4.fsl_common.h.162.37daaf5dee6e1f72e10ac988afa1643d
00000000 l       .group	00000000 wm4.clock_config.h.14.f503207375904de35c270c0667216699
00000000 l       .group	00000000 wm4.fsl_gpio.h.32.9a0d943298c94a992969acbc78e9d286
00000000 l       .group	00000000 wm4.board.h.42.5ce18074d55e35e9ee7136f727b53be4
00000000 l       .group	00000000 wm4.pin_mux.h.7.c00b5943e04da57ac7d7108f33c7352d
00000000 l       .group	00000000 wm4.fsl_debug_console.h.45.91cf4e441afe869add665a9dcd5a3b6d
00000000 l       .group	00000000 wm4.cap_sensor.h.9.4eb917303d85796fdce2937901841ade
00000000 l       .group	00000000 wm4.led.h.22.edf48fafab9ff810bfb7872fefcf092e
00000000 l       .group	00000000 wm4.time.h.24.b4ffc42616c61fa7e6ac58ff6bc0645b
00000000 l    d  .comment	00000000 .comment
00000000 l    d  .ARM.attributes	00000000 .ARM.attributes
00000000 l    d  .group	00000000 .group
00000000 l    d  .group	00000000 .group
00000000 l    d  .group	00000000 .group
00000000 l    d  .group	00000000 .group
00000000 l    d  .group	00000000 .group
00000000 l    d  .group	00000000 .group
00000000 l    d  .group	00000000 .group
00000000 l    d  .group	00000000 .group
00000000 l    d  .group	00000000 .group
00000000 l    d  .group	00000000 .group
00000000 l    d  .group	00000000 .group
00000000 l    d  .group	00000000 .group
00000000 l    d  .group	00000000 .group
00000000 l    d  .group	00000000 .group
00000000 l    d  .group	00000000 .group
00000000 l    d  .group	00000000 .group
00000000 l    d  .group	00000000 .group
00000000 l    d  .group	00000000 .group
00000000 l    d  .group	00000000 .group
00000000 l    d  .group	00000000 .group
00000000 l    d  .group	00000000 .group
00000000 l    d  .group	00000000 .group
00000000 l    d  .group	00000000 .group
00000000 l    d  .group	00000000 .group
00000000 l    d  .group	00000000 .group
00000000 l    d  .group	00000000 .group
00000000 g     F .text.main	00000130 main
00000000         *UND*	00000000 BOARD_InitBootPins
00000000         *UND*	00000000 BOARD_InitBootClocks
00000000         *UND*	00000000 BOARD_InitBootPeripherals
00000000         *UND*	00000000 BOARD_InitDebugConsole
00000000         *UND*	00000000 DbgConsole_Printf
00000000         *UND*	00000000 LED_Init
00000000         *UND*	00000000 CAP_Init
00000000         *UND*	00000000 LED_Control
00000000         *UND*	00000000 LED_Startup
00000000         *UND*	00000000 conditional_Delay
00000000         *UND*	00000000 Delay



Disassembly of section .text.main:

00000000 <main>:
   0:	b580      	push	{r7, lr}
   2:	b084      	sub	sp, #16
   4:	af00      	add	r7, sp, #0
   6:	f7ff fffe 	bl	0 <BOARD_InitBootPins>
			6: R_ARM_THM_CALL	BOARD_InitBootPins
   a:	f7ff fffe 	bl	0 <BOARD_InitBootClocks>
			a: R_ARM_THM_CALL	BOARD_InitBootClocks
   e:	f7ff fffe 	bl	0 <BOARD_InitBootPeripherals>
			e: R_ARM_THM_CALL	BOARD_InitBootPeripherals
  12:	f7ff fffe 	bl	0 <BOARD_InitDebugConsole>
			12: R_ARM_THM_CALL	BOARD_InitDebugConsole
  16:	4b38      	ldr	r3, [pc, #224]	; (f8 <main+0xf8>)
  18:	0018      	movs	r0, r3
  1a:	f7ff fffe 	bl	0 <DbgConsole_Printf>
			1a: R_ARM_THM_CALL	DbgConsole_Printf
  1e:	4b37      	ldr	r3, [pc, #220]	; (fc <main+0xfc>)
  20:	0018      	movs	r0, r3
  22:	f7ff fffe 	bl	0 <DbgConsole_Printf>
			22: R_ARM_THM_CALL	DbgConsole_Printf
  26:	f7ff fffe 	bl	0 <LED_Init>
			26: R_ARM_THM_CALL	LED_Init
  2a:	f7ff fffe 	bl	0 <CAP_Init>
			2a: R_ARM_THM_CALL	CAP_Init
  2e:	4b34      	ldr	r3, [pc, #208]	; (100 <main+0x100>)
  30:	0018      	movs	r0, r3
  32:	f7ff fffe 	bl	0 <DbgConsole_Printf>
			32: R_ARM_THM_CALL	DbgConsole_Printf
  36:	2200      	movs	r2, #0
  38:	2100      	movs	r1, #0
  3a:	2000      	movs	r0, #0
  3c:	f7ff fffe 	bl	0 <LED_Control>
			3c: R_ARM_THM_CALL	LED_Control
  40:	4b30      	ldr	r3, [pc, #192]	; (104 <main+0x104>)
  42:	0018      	movs	r0, r3
  44:	f7ff fffe 	bl	0 <DbgConsole_Printf>
			44: R_ARM_THM_CALL	DbgConsole_Printf
  48:	2300      	movs	r3, #0
  4a:	60bb      	str	r3, [r7, #8]
  4c:	1d3b      	adds	r3, r7, #4
  4e:	4a2e      	ldr	r2, [pc, #184]	; (108 <main+0x108>)
  50:	8811      	ldrh	r1, [r2, #0]
  52:	8019      	strh	r1, [r3, #0]
  54:	7892      	ldrb	r2, [r2, #2]
  56:	709a      	strb	r2, [r3, #2]
  58:	4b2c      	ldr	r3, [pc, #176]	; (10c <main+0x10c>)
  5a:	0018      	movs	r0, r3
  5c:	f7ff fffe 	bl	0 <LED_Startup>
			5c: R_ARM_THM_CALL	LED_Startup
  60:	4b2b      	ldr	r3, [pc, #172]	; (110 <main+0x110>)
  62:	0018      	movs	r0, r3
  64:	f7ff fffe 	bl	0 <DbgConsole_Printf>
			64: R_ARM_THM_CALL	DbgConsole_Printf
  68:	4b2a      	ldr	r3, [pc, #168]	; (114 <main+0x114>)
  6a:	0018      	movs	r0, r3
  6c:	f7ff fffe 	bl	0 <DbgConsole_Printf>
			6c: R_ARM_THM_CALL	DbgConsole_Printf
  70:	2300      	movs	r3, #0
  72:	60fb      	str	r3, [r7, #12]
  74:	68fb      	ldr	r3, [r7, #12]
  76:	2b04      	cmp	r3, #4
  78:	d101      	bne.n	7e <main+0x7e>
  7a:	2300      	movs	r3, #0
  7c:	60fb      	str	r3, [r7, #12]
  7e:	4b26      	ldr	r3, [pc, #152]	; (118 <main+0x118>)
  80:	68fa      	ldr	r2, [r7, #12]
  82:	0092      	lsls	r2, r2, #2
  84:	58d2      	ldr	r2, [r2, r3]
  86:	4b25      	ldr	r3, [pc, #148]	; (11c <main+0x11c>)
  88:	0011      	movs	r1, r2
  8a:	0018      	movs	r0, r3
  8c:	f7ff fffe 	bl	0 <DbgConsole_Printf>
			8c: R_ARM_THM_CALL	DbgConsole_Printf
  90:	4b23      	ldr	r3, [pc, #140]	; (120 <main+0x120>)
  92:	781b      	ldrb	r3, [r3, #0]
  94:	2b00      	cmp	r3, #0
  96:	d11b      	bne.n	d0 <main+0xd0>
  98:	1d3b      	adds	r3, r7, #4
  9a:	781b      	ldrb	r3, [r3, #0]
  9c:	0018      	movs	r0, r3
  9e:	1d3b      	adds	r3, r7, #4
  a0:	785b      	ldrb	r3, [r3, #1]
  a2:	0019      	movs	r1, r3
  a4:	1d3b      	adds	r3, r7, #4
  a6:	789b      	ldrb	r3, [r3, #2]
  a8:	001a      	movs	r2, r3
  aa:	f7ff fffe 	bl	0 <LED_Control>
			aa: R_ARM_THM_CALL	LED_Control
  ae:	4b1d      	ldr	r3, [pc, #116]	; (124 <main+0x124>)
  b0:	68fa      	ldr	r2, [r7, #12]
  b2:	0092      	lsls	r2, r2, #2
  b4:	58d3      	ldr	r3, [r2, r3]
  b6:	0018      	movs	r0, r3
  b8:	4b1b      	ldr	r3, [pc, #108]	; (128 <main+0x128>)
  ba:	68fa      	ldr	r2, [r7, #12]
  bc:	0092      	lsls	r2, r2, #2
  be:	58d1      	ldr	r1, [r2, r3]
  c0:	1d3b      	adds	r3, r7, #4
  c2:	2208      	movs	r2, #8
  c4:	18ba      	adds	r2, r7, r2
  c6:	f7ff fffe 	bl	0 <conditional_Delay>
			c6: R_ARM_THM_CALL	conditional_Delay
  ca:	4b15      	ldr	r3, [pc, #84]	; (120 <main+0x120>)
  cc:	2201      	movs	r2, #1
  ce:	701a      	strb	r2, [r3, #0]
  d0:	4b13      	ldr	r3, [pc, #76]	; (120 <main+0x120>)
  d2:	781b      	ldrb	r3, [r3, #0]
  d4:	2b01      	cmp	r3, #1
  d6:	d10b      	bne.n	f0 <main+0xf0>
  d8:	2200      	movs	r2, #0
  da:	2100      	movs	r1, #0
  dc:	2000      	movs	r0, #0
  de:	f7ff fffe 	bl	0 <LED_Control>
			de: R_ARM_THM_CALL	LED_Control
  e2:	4b12      	ldr	r3, [pc, #72]	; (12c <main+0x12c>)
  e4:	0018      	movs	r0, r3
  e6:	f7ff fffe 	bl	0 <Delay>
			e6: R_ARM_THM_CALL	Delay
  ea:	4b0d      	ldr	r3, [pc, #52]	; (120 <main+0x120>)
  ec:	2200      	movs	r2, #0
  ee:	701a      	strb	r2, [r3, #0]
  f0:	68fb      	ldr	r3, [r7, #12]
  f2:	3301      	adds	r3, #1
  f4:	60fb      	str	r3, [r7, #12]
  f6:	e7bd      	b.n	74 <main+0x74>
  f8:	00000000 	.word	0x00000000
			f8: R_ARM_ABS32	.rodata.main.str1.4
  fc:	0000001c 	.word	0x0000001c
			fc: R_ARM_ABS32	.rodata.main.str1.4
 100:	0000002c 	.word	0x0000002c
			100: R_ARM_ABS32	.rodata.main.str1.4
 104:	00000050 	.word	0x00000050
			104: R_ARM_ABS32	.rodata.main.str1.4
 108:	00000000 	.word	0x00000000
			108: R_ARM_ABS32	.rodata
 10c:	00001388 	.word	0x00001388
 110:	00000064 	.word	0x00000064
			110: R_ARM_ABS32	.rodata.main.str1.4
 114:	00000080 	.word	0x00000080
			114: R_ARM_ABS32	.rodata.main.str1.4
 118:	00000000 	.word	0x00000000
			118: R_ARM_ABS32	.rodata.delayTimes
 11c:	00000098 	.word	0x00000098
			11c: R_ARM_ABS32	.rodata.main.str1.4
	...
			120: R_ARM_ABS32	.bss.next_state
			124: R_ARM_ABS32	.rodata.delayLoopUp
			128: R_ARM_ABS32	.rodata.delay100MSECLoopUp
 12c:	000009c4 	.word	0x000009c4
