   1              		.cpu cortex-m0plus
   2              		.eabi_attribute 20, 1
   3              		.eabi_attribute 21, 1
   4              		.eabi_attribute 23, 3
   5              		.eabi_attribute 24, 1
   6              		.eabi_attribute 25, 1
   7              		.eabi_attribute 26, 1
   8              		.eabi_attribute 30, 6
   9              		.eabi_attribute 34, 0
  10              		.eabi_attribute 18, 4
  11              		.file	"delay.c"
  12              		.text
  13              	.Ltext0:
  14              		.cfi_sections	.debug_frame
  15              		.section	.rodata.delayTimes,"a"
  16              		.align	2
  19              	delayTimes:
  20 0000 F4010000 		.word	500
  21 0004 E8030000 		.word	1000
  22 0008 D0070000 		.word	2000
  23 000c B80B0000 		.word	3000
  24              		.section	.rodata.delayLoopUp,"a"
  25              		.align	2
  28              	delayLoopUp:
  29 0000 B4C40400 		.word	312500
  30 0004 68890900 		.word	625000
  31 0008 A0BB0D00 		.word	900000
  32 000c 804F1200 		.word	1200000
  33              		.section	.rodata.delay100MSECLoopUp,"a"
  34              		.align	2
  37              	delay100MSECLoopUp:
  38 0000 24F40000 		.word	62500
  39 0004 24F40000 		.word	62500
  40 0008 409C0000 		.word	40000
  41 000c 16160500 		.word	333334
  42              		.section	.text.Delay,"ax",%progbits
  43              		.align	1
  44              		.global	Delay
  45              		.arch armv6s-m
  46              		.syntax unified
  47              		.code	16
  48              		.thumb_func
  49              		.fpu softvfp
  51              	Delay:
  52              	.LFB56:
  53              		.file 1 "../source/delay.c"
   1:../source/delay.c **** /*
   2:../source/delay.c ****  * delay.c
   3:../source/delay.c ****  *
   4:../source/delay.c ****  *  Created on: Sep 19, 2020
   5:../source/delay.c ****  *      Author: Arpit Savarkar / arpit.savarkar@colorado.edu
   6:../source/delay.c ****  */
   7:../source/delay.c **** #include "delay.h"
   8:../source/delay.c **** 
   9:../source/delay.c **** 
  10:../source/delay.c **** /**
  11:../source/delay.c **** ​ * ​ ​ @brief​ ​ Busy Waiting Function upto specified Delay Limit
  12:../source/delay.c ****  *
  13:../source/delay.c **** ​ * ​ ​ @param​ ​ delay_time: Delay Time in in Seconds
  14:../source/delay.c **** ​ *
  15:../source/delay.c **** ​ * ​ ​ @return​ ​ void
  16:../source/delay.c **** ​ */
  17:../source/delay.c **** void Delay(volatile unsigned int delay_time) {
  54              		.loc 1 17 46
  55              		.cfi_startproc
  56              		@ args = 0, pretend = 0, frame = 8
  57              		@ frame_needed = 1, uses_anonymous_args = 0
  58 0000 80B5     		push	{r7, lr}
  59              		.cfi_def_cfa_offset 8
  60              		.cfi_offset 7, -8
  61              		.cfi_offset 14, -4
  62 0002 82B0     		sub	sp, sp, #8
  63              		.cfi_def_cfa_offset 16
  64 0004 00AF     		add	r7, sp, #0
  65              		.cfi_def_cfa_register 7
  66 0006 7860     		str	r0, [r7, #4]
  18:../source/delay.c **** 	delay_time = delay_time*1000;
  67              		.loc 1 18 25
  68 0008 7A68     		ldr	r2, [r7, #4]
  69 000a 1300     		movs	r3, r2
  70 000c 5B01     		lsls	r3, r3, #5
  71 000e 9B1A     		subs	r3, r3, r2
  72 0010 9B00     		lsls	r3, r3, #2
  73 0012 9B18     		adds	r3, r3, r2
  74 0014 DB00     		lsls	r3, r3, #3
  75              		.loc 1 18 13
  76 0016 7B60     		str	r3, [r7, #4]
  19:../source/delay.c **** 	while(delay_time--) {
  77              		.loc 1 19 7
  78 0018 C046     		nop
  79              	.L2:
  80              		.loc 1 19 18 discriminator 1
  81 001a 7B68     		ldr	r3, [r7, #4]
  82 001c 5A1E     		subs	r2, r3, #1
  83 001e 7A60     		str	r2, [r7, #4]
  84              		.loc 1 19 7 discriminator 1
  85 0020 002B     		cmp	r3, #0
  86 0022 FAD1     		bne	.L2
  20:../source/delay.c **** 		;
  21:../source/delay.c **** 	}
  22:../source/delay.c **** }
  87              		.loc 1 22 1
  88 0024 C046     		nop
  89 0026 C046     		nop
  90 0028 BD46     		mov	sp, r7
  91 002a 02B0     		add	sp, sp, #8
  92              		@ sp needed
  93 002c 80BD     		pop	{r7, pc}
  94              		.cfi_endproc
  95              	.LFE56:
  97              		.global	__aeabi_uidivmod
  98              		.section	.text.conditional_Delay,"ax",%progbits
  99              		.align	1
 100              		.global	conditional_Delay
 101              		.syntax unified
 102              		.code	16
 103              		.thumb_func
 104              		.fpu softvfp
 106              	conditional_Delay:
 107              	.LFB57:
  23:../source/delay.c **** 
  24:../source/delay.c **** 
  25:../source/delay.c **** /**
  26:../source/delay.c **** ​ * ​ ​ @brief​ ​ Busy Waiting Function , also checks if the capacitive touch sensor prov
  27:../source/delay.c ****  *           Non Noisy value read every 100 msec
  28:../source/delay.c ****  *
  29:../source/delay.c **** ​ * ​ ​ @param​ ​ delay_time: Delay Time in in milliseconds
  30:../source/delay.c ****  * ​ ​ @param​ ​ MSEC100: 100 milliseconds delay absolute value
  31:../source/delay.c ****  *   @param  val : Value from the capacitive sensor
  32:../source/delay.c ****  *   @param  LED_array : Pointer to an LED_Status Register
  33:../source/delay.c **** ​ *
  34:../source/delay.c **** ​ * ​ ​ @return​ ​ void
  35:../source/delay.c **** ​ */
  36:../source/delay.c **** void conditional_Delay(volatile uint32_t delay_time, int MSEC100 , int* val, bool* LED_array) {
 108              		.loc 1 36 95
 109              		.cfi_startproc
 110              		@ args = 0, pretend = 0, frame = 16
 111              		@ frame_needed = 1, uses_anonymous_args = 0
 112 0000 80B5     		push	{r7, lr}
 113              		.cfi_def_cfa_offset 8
 114              		.cfi_offset 7, -8
 115              		.cfi_offset 14, -4
 116 0002 84B0     		sub	sp, sp, #16
 117              		.cfi_def_cfa_offset 24
 118 0004 00AF     		add	r7, sp, #0
 119              		.cfi_def_cfa_register 7
 120 0006 F860     		str	r0, [r7, #12]
 121 0008 B960     		str	r1, [r7, #8]
 122 000a 7A60     		str	r2, [r7, #4]
 123 000c 3B60     		str	r3, [r7]
  37:../source/delay.c **** 
  38:../source/delay.c **** 	while(delay_time-- != 0) {
 124              		.loc 1 38 7
 125 000e 1CE0     		b	.L4
 126              	.L5:
  39:../source/delay.c **** 		if((delay_time % MSEC100) == 0) {
 127              		.loc 1 39 18
 128 0010 FB68     		ldr	r3, [r7, #12]
 129 0012 BA68     		ldr	r2, [r7, #8]
 130 0014 1100     		movs	r1, r2
 131 0016 1800     		movs	r0, r3
 132 0018 FFF7FEFF 		bl	__aeabi_uidivmod
 133              	.LVL0:
 134 001c 0B1E     		subs	r3, r1, #0
 135              		.loc 1 39 5
 136 001e 14D1     		bne	.L4
  40:../source/delay.c **** 			*val = CAP_Scan();
 137              		.loc 1 40 11
 138 0020 FFF7FEFF 		bl	CAP_Scan
 139 0024 0300     		movs	r3, r0
 140 0026 1A00     		movs	r2, r3
 141              		.loc 1 40 9
 142 0028 7B68     		ldr	r3, [r7, #4]
 143 002a 1A60     		str	r2, [r3]
  41:../source/delay.c **** 			if( (*val > NOISE_LOW) && (*val < NOISE_HIGH) ) {
 144              		.loc 1 41 9
 145 002c 7B68     		ldr	r3, [r7, #4]
 146 002e 1B68     		ldr	r3, [r3]
 147              		.loc 1 41 6
 148 0030 192B     		cmp	r3, #25
 149 0032 0ADD     		ble	.L4
 150              		.loc 1 41 31 discriminator 1
 151 0034 7B68     		ldr	r3, [r7, #4]
 152 0036 1B68     		ldr	r3, [r3]
 153              		.loc 1 41 27 discriminator 1
 154 0038 094A     		ldr	r2, .L6
 155 003a 9342     		cmp	r3, r2
 156 003c 05DC     		bgt	.L4
  42:../source/delay.c **** 				helper_COLOR(val, LED_array);
 157              		.loc 1 42 5
 158 003e 3A68     		ldr	r2, [r7]
 159 0040 7B68     		ldr	r3, [r7, #4]
 160 0042 1100     		movs	r1, r2
 161 0044 1800     		movs	r0, r3
 162 0046 FFF7FEFF 		bl	helper_COLOR
 163              	.L4:
  38:../source/delay.c **** 		if((delay_time % MSEC100) == 0) {
 164              		.loc 1 38 18
 165 004a FB68     		ldr	r3, [r7, #12]
 166 004c 5A1E     		subs	r2, r3, #1
 167 004e FA60     		str	r2, [r7, #12]
  38:../source/delay.c **** 		if((delay_time % MSEC100) == 0) {
 168              		.loc 1 38 7
 169 0050 002B     		cmp	r3, #0
 170 0052 DDD1     		bne	.L5
  43:../source/delay.c **** 			}
  44:../source/delay.c **** 		}
  45:../source/delay.c **** 		else {
  46:../source/delay.c **** 			;
  47:../source/delay.c **** 		}
  48:../source/delay.c **** 	}
  49:../source/delay.c **** }
 171              		.loc 1 49 1
 172 0054 C046     		nop
 173 0056 C046     		nop
 174 0058 BD46     		mov	sp, r7
 175 005a 04B0     		add	sp, sp, #16
 176              		@ sp needed
 177 005c 80BD     		pop	{r7, pc}
 178              	.L7:
 179 005e C046     		.align	2
 180              	.L6:
 181 0060 5FEA0000 		.word	59999
 182              		.cfi_endproc
 183              	.LFE57:
 185              		.text
 186              	.Letext0:
 187              		.file 2 "/usr/local/mcuxpressoide-11.2.0_4120/ide/plugins/com.nxp.mcuxpresso.tools.linux_11.2.0.20
 188              		.file 3 "/home/arpit/studies/pes/Blinkenlights/CMSIS/system_MKL25Z4.h"
 189              		.file 4 "/usr/local/mcuxpressoide-11.2.0_4120/ide/plugins/com.nxp.mcuxpresso.tools.linux_11.2.0.20
 190              		.file 5 "/usr/local/mcuxpressoide-11.2.0_4120/ide/plugins/com.nxp.mcuxpresso.tools.linux_11.2.0.20
 191              		.file 6 "/home/arpit/studies/pes/Blinkenlights/drivers/fsl_clock.h"
 192              		.file 7 "../source/delay.h"
 193              		.file 8 "/home/arpit/studies/pes/Blinkenlights/drivers/fsl_common.h"